	.file	"full.llvm"
	.text
.Ltext_begin:
	.data
	.file	1 "stencil.c"
	.text
	.globl	stencil
	.align	16, 0x90
	.type	stencil,@function
stencil:                                # @stencil
	.cfi_startproc
.Lfunc_begin0:
	.loc	1 8 0                   # stencil.c:8:0
# BB#0:
	pushq	%rbp
.Ltmp7:
	.cfi_def_cfa_offset 16
	pushq	%r15
.Ltmp8:
	.cfi_def_cfa_offset 24
	pushq	%r14
.Ltmp9:
	.cfi_def_cfa_offset 32
	pushq	%r13
.Ltmp10:
	.cfi_def_cfa_offset 40
	pushq	%r12
.Ltmp11:
	.cfi_def_cfa_offset 48
	pushq	%rbx
.Ltmp12:
	.cfi_def_cfa_offset 56
	subq	$6168, %rsp             # imm = 0x1818
.Ltmp13:
	.cfi_def_cfa_offset 6224
.Ltmp14:
	.cfi_offset %rbx, -56
.Ltmp15:
	.cfi_offset %r12, -48
.Ltmp16:
	.cfi_offset %r13, -40
.Ltmp17:
	.cfi_offset %r14, -32
.Ltmp18:
	.cfi_offset %r15, -24
.Ltmp19:
	.cfi_offset %rbp, -16
	movabsq	$0, %rax
	movabsq	$1, %rcx
	leaq	.L.str77, %r8
	leaq	.L.str78, %r9
	movabsq	$14, %r10
	leaq	.L.str74, %r11
	leaq	.L.str75, %rbx
	leaq	.L.str76, %r14
	movabsq	$2, %r15
	movl	$1, %ebp
	movabsq	$19134, %r12            # imm = 0x4ABE
	movabsq	$64, %r13
	movq	%rax, 6160(%rsp)        # 8-byte Spill
	leaq	.L.str72, %rax
	movq	%rax, 6152(%rsp)        # 8-byte Spill
	leaq	.L.str73, %rax
	movq	%rax, 6144(%rsp)        # 8-byte Spill
	leaq	.L.str70, %rax
	movq	%rax, 6136(%rsp)        # 8-byte Spill
	leaq	.L.str71, %rax
	movq	%rax, 6128(%rsp)        # 8-byte Spill
	movabsq	$8, %rax
	movq	%rax, 6120(%rsp)        # 8-byte Spill
	leaq	.L.str68, %rax
	movq	%rax, 6112(%rsp)        # 8-byte Spill
	leaq	.L.str69, %rax
	movq	%rax, 6104(%rsp)        # 8-byte Spill
	movabsq	$68, %rax
	movq	%rax, 6096(%rsp)        # 8-byte Spill
	leaq	.L.str65, %rax
	movq	%rax, 6088(%rsp)        # 8-byte Spill
	leaq	.L.str66, %rax
	movq	%rax, 6080(%rsp)        # 8-byte Spill
	leaq	.L.str67, %rax
	movq	%rax, 6072(%rsp)        # 8-byte Spill
	movabsq	$29, %rax
	movq	%rax, 6064(%rsp)        # 8-byte Spill
	leaq	.L.str63, %rax
	movq	%rax, 6056(%rsp)        # 8-byte Spill
	leaq	.L.str64, %rax
	movq	%rax, 6048(%rsp)        # 8-byte Spill
	leaq	.L.str61, %rax
	movq	%rax, 6040(%rsp)        # 8-byte Spill
	leaq	.L.str62, %rax
	movq	%rax, 6032(%rsp)        # 8-byte Spill
	movabsq	$7, %rax
	movq	%rax, 6024(%rsp)        # 8-byte Spill
	leaq	.L.str59, %rax
	movq	%rax, 6016(%rsp)        # 8-byte Spill
	leaq	.L.str60, %rax
	movq	%rax, 6008(%rsp)        # 8-byte Spill
	movabsq	$63, %rax
	movq	%rax, 6000(%rsp)        # 8-byte Spill
	leaq	.L.str56, %rax
	movq	%rax, 5992(%rsp)        # 8-byte Spill
	leaq	.L.str57, %rax
	movq	%rax, 5984(%rsp)        # 8-byte Spill
	leaq	.L.str58, %rax
	movq	%rax, 5976(%rsp)        # 8-byte Spill
	leaq	.L.str54, %rax
	movq	%rax, 5968(%rsp)        # 8-byte Spill
	leaq	.L.str55, %rax
	movq	%rax, 5960(%rsp)        # 8-byte Spill
	leaq	.L.str52, %rax
	movq	%rax, 5952(%rsp)        # 8-byte Spill
	leaq	.L.str53, %rax
	movq	%rax, 5944(%rsp)        # 8-byte Spill
	movabsq	$6, %rax
	movq	%rax, 5936(%rsp)        # 8-byte Spill
	leaq	.L.str50, %rax
	movq	%rax, 5928(%rsp)        # 8-byte Spill
	leaq	.L.str51, %rax
	movq	%rax, 5920(%rsp)        # 8-byte Spill
	movabsq	$58, %rax
	movq	%rax, 5912(%rsp)        # 8-byte Spill
	leaq	.L.str47, %rax
	movq	%rax, 5904(%rsp)        # 8-byte Spill
	leaq	.L.str48, %rax
	movq	%rax, 5896(%rsp)        # 8-byte Spill
	leaq	.L.str49, %rax
	movq	%rax, 5888(%rsp)        # 8-byte Spill
	leaq	.L.str45, %rax
	movq	%rax, 5880(%rsp)        # 8-byte Spill
	leaq	.L.str46, %rax
	movq	%rax, 5872(%rsp)        # 8-byte Spill
	leaq	.L.str43, %rax
	movq	%rax, 5864(%rsp)        # 8-byte Spill
	leaq	.L.str44, %rax
	movq	%rax, 5856(%rsp)        # 8-byte Spill
	movabsq	$5, %rax
	movq	%rax, 5848(%rsp)        # 8-byte Spill
	leaq	.L.str41, %rax
	movq	%rax, 5840(%rsp)        # 8-byte Spill
	leaq	.L.str42, %rax
	movq	%rax, 5832(%rsp)        # 8-byte Spill
	movabsq	$51, %rax
	movq	%rax, 5824(%rsp)        # 8-byte Spill
	leaq	.L.str38, %rax
	movq	%rax, 5816(%rsp)        # 8-byte Spill
	leaq	.L.str39, %rax
	movq	%rax, 5808(%rsp)        # 8-byte Spill
	leaq	.L.str40, %rax
	movq	%rax, 5800(%rsp)        # 8-byte Spill
	leaq	.L.str36, %rax
	movq	%rax, 5792(%rsp)        # 8-byte Spill
	leaq	.L.str37, %rax
	movq	%rax, 5784(%rsp)        # 8-byte Spill
	leaq	.L.str34, %rax
	movq	%rax, 5776(%rsp)        # 8-byte Spill
	leaq	.L.str35, %rax
	movq	%rax, 5768(%rsp)        # 8-byte Spill
	movabsq	$4, %rax
	movq	%rax, 5760(%rsp)        # 8-byte Spill
	leaq	.L.str32, %rax
	movq	%rax, 5752(%rsp)        # 8-byte Spill
	leaq	.L.str33, %rax
	movq	%rax, 5744(%rsp)        # 8-byte Spill
	movabsq	$46, %rax
	movq	%rax, 5736(%rsp)        # 8-byte Spill
	leaq	.L.str29, %rax
	movq	%rax, 5728(%rsp)        # 8-byte Spill
	leaq	.L.str30, %rax
	movq	%rax, 5720(%rsp)        # 8-byte Spill
	leaq	.L.str31, %rax
	movq	%rax, 5712(%rsp)        # 8-byte Spill
	leaq	.L.str27, %rax
	movq	%rax, 5704(%rsp)        # 8-byte Spill
	leaq	.L.str28, %rax
	movq	%rax, 5696(%rsp)        # 8-byte Spill
	leaq	.L.str25, %rax
	movq	%rax, 5688(%rsp)        # 8-byte Spill
	leaq	.L.str26, %rax
	movq	%rax, 5680(%rsp)        # 8-byte Spill
	movabsq	$3, %rax
	movq	%rax, 5672(%rsp)        # 8-byte Spill
	leaq	.L.str23, %rax
	movq	%rax, 5664(%rsp)        # 8-byte Spill
	leaq	.L.str24, %rax
	movq	%rax, 5656(%rsp)        # 8-byte Spill
	movabsq	$41, %rax
	movq	%rax, 5648(%rsp)        # 8-byte Spill
	leaq	.L.str20, %rax
	movq	%rax, 5640(%rsp)        # 8-byte Spill
	leaq	.L.str21, %rax
	movq	%rax, 5632(%rsp)        # 8-byte Spill
	leaq	.L.str22, %rax
	movq	%rax, 5624(%rsp)        # 8-byte Spill
	leaq	.L.str18, %rax
	movq	%rax, 5616(%rsp)        # 8-byte Spill
	leaq	.L.str19, %rax
	movq	%rax, 5608(%rsp)        # 8-byte Spill
	leaq	.L.str16, %rax
	movq	%rax, 5600(%rsp)        # 8-byte Spill
	leaq	.L.str17, %rax
	movq	%rax, 5592(%rsp)        # 8-byte Spill
	leaq	.L.str14, %rax
	movq	%rax, 5584(%rsp)        # 8-byte Spill
	leaq	.L.str15, %rax
	movq	%rax, 5576(%rsp)        # 8-byte Spill
	movabsq	$34, %rax
	movq	%rax, 5568(%rsp)        # 8-byte Spill
	leaq	.L.str11, %rax
	movq	%rax, 5560(%rsp)        # 8-byte Spill
	leaq	.L.str12, %rax
	movq	%rax, 5552(%rsp)        # 8-byte Spill
	leaq	.L.str13, %rax
	movq	%rax, 5544(%rsp)        # 8-byte Spill
	leaq	.L.str9, %rax
	movq	%rax, 5536(%rsp)        # 8-byte Spill
	leaq	.L.str10, %rax
	movq	%rax, 5528(%rsp)        # 8-byte Spill
	leaq	.L.str7, %rax
	movq	%rax, 5520(%rsp)        # 8-byte Spill
	leaq	.L.str8, %rax
	movq	%rax, 5512(%rsp)        # 8-byte Spill
	leaq	.L.str5, %rax
	movq	%rax, 5504(%rsp)        # 8-byte Spill
	leaq	.L.str6, %rax
	movq	%rax, 5496(%rsp)        # 8-byte Spill
	leaq	.L.str2, %rax
	movq	%rax, 5488(%rsp)        # 8-byte Spill
	leaq	.L.str3, %rax
	movq	%rax, 5480(%rsp)        # 8-byte Spill
	leaq	.L.str4, %rax
	#DEBUG_VALUE: stencil:orig <- RDI
	#DEBUG_VALUE: stencil:sol <- RSI
	#DEBUG_VALUE: stencil:filter <- RDX
.Ltmp20:
	#DEBUG_VALUE: stencil:i <- 0
	.loc	1 29 0 prologue_end     # stencil.c:29:0
	movq	%rax, 5472(%rsp)        # 8-byte Spill
	movq	6064(%rsp), %rax        # 8-byte Reload
	movq	%rdi, 5464(%rsp)        # 8-byte Spill
.Ltmp21:
	#DEBUG_VALUE: stencil:orig <- [RSP+5464]
	movq	%rax, %rdi
	movq	5488(%rsp), %rax        # 8-byte Reload
	movq	%rsi, 5456(%rsp)        # 8-byte Spill
.Ltmp22:
	#DEBUG_VALUE: stencil:sol <- [RSP+5456]
	movq	%rax, %rsi
	movq	5480(%rsp), %rax        # 8-byte Reload
	movq	%rdx, 5448(%rsp)        # 8-byte Spill
.Ltmp23:
	#DEBUG_VALUE: stencil:filter <- [RSP+5448]
	movq	%rax, %rdx
	movq	5472(%rsp), %rax        # 8-byte Reload
	movq	%rcx, 5440(%rsp)        # 8-byte Spill
	movq	%rax, %rcx
	movq	6064(%rsp), %rax        # 8-byte Reload
	movq	%r8, 5432(%rsp)         # 8-byte Spill
	movq	%rax, %r8
	movq	%r9, 5424(%rsp)         # 8-byte Spill
	movl	%ebp, %r9d
	movl	$1, (%rsp)
	movq	%r12, 5416(%rsp)        # 8-byte Spill
	movq	%r13, 5408(%rsp)        # 8-byte Spill
	movl	%ebp, 5404(%rsp)        # 4-byte Spill
	movq	%r15, 5392(%rsp)        # 8-byte Spill
	movq	%r14, 5384(%rsp)        # 8-byte Spill
	movq	%rbx, 5376(%rsp)        # 8-byte Spill
	movq	%r10, 5368(%rsp)        # 8-byte Spill
	movq	%r11, 5360(%rsp)        # 8-byte Spill
	callq	trace_logger_log0
	movq	5392(%rsp), %rdi        # 8-byte Reload
	movq	5408(%rsp), %rsi        # 8-byte Reload
	movq	5440(%rsp), %rdx        # 8-byte Reload
	movq	6160(%rsp), %rcx        # 8-byte Reload
	movq	5504(%rsp), %r8         # 8-byte Reload
	movq	6160(%rsp), %r9         # 8-byte Reload
	movq	5496(%rsp), %rax        # 8-byte Reload
	movq	%rax, (%rsp)
	callq	trace_logger_log_int
	movq	5440(%rsp), %rdi        # 8-byte Reload
	movq	5408(%rsp), %rsi        # 8-byte Reload
	movq	5448(%rsp), %rdx        # 8-byte Reload
	movq	5440(%rsp), %rcx        # 8-byte Reload
	movq	5520(%rsp), %r8         # 8-byte Reload
	movq	6160(%rsp), %r9         # 8-byte Reload
	movq	5512(%rsp), %rax        # 8-byte Reload
	movq	%rax, (%rsp)
	callq	trace_logger_log_int
	movq	5448(%rsp), %rax        # 8-byte Reload
	addq	$4, %rax
	.loc	1 34 0                  # stencil.c:34:0
	movq	5416(%rsp), %rdi        # 8-byte Reload
	movq	5408(%rsp), %rsi        # 8-byte Reload
	movq	%rax, %rdx
	movq	5440(%rsp), %rcx        # 8-byte Reload
	movq	5536(%rsp), %r8         # 8-byte Reload
	movq	6160(%rsp), %r9         # 8-byte Reload
	movq	5528(%rsp), %r10        # 8-byte Reload
	movq	%r10, (%rsp)
	movq	%rax, 5352(%rsp)        # 8-byte Spill
	callq	trace_logger_log_int
	movq	5568(%rsp), %rdi        # 8-byte Reload
	movq	5560(%rsp), %rsi        # 8-byte Reload
	movq	5552(%rsp), %rdx        # 8-byte Reload
	movq	5544(%rsp), %rcx        # 8-byte Reload
	movq	6064(%rsp), %r8         # 8-byte Reload
	movl	5404(%rsp), %r9d        # 4-byte Reload
	movl	$1, (%rsp)
	callq	trace_logger_log0
	movq	5392(%rsp), %rdi        # 8-byte Reload
	movq	5408(%rsp), %rsi        # 8-byte Reload
	movq	5392(%rsp), %rdx        # 8-byte Reload
	movq	6160(%rsp), %rcx        # 8-byte Reload
	movq	5584(%rsp), %r8         # 8-byte Reload
	movq	6160(%rsp), %r9         # 8-byte Reload
	movq	5576(%rsp), %rax        # 8-byte Reload
	movq	%rax, (%rsp)
	callq	trace_logger_log_int
	movq	5440(%rsp), %rdi        # 8-byte Reload
	movq	5408(%rsp), %rsi        # 8-byte Reload
	movq	5448(%rsp), %rdx        # 8-byte Reload
	movq	5440(%rsp), %rcx        # 8-byte Reload
	movq	5600(%rsp), %r8         # 8-byte Reload
	movq	6160(%rsp), %r9         # 8-byte Reload
	movq	5592(%rsp), %rax        # 8-byte Reload
	movq	%rax, (%rsp)
	callq	trace_logger_log_int
	movq	5448(%rsp), %rax        # 8-byte Reload
	addq	$8, %rax
	.loc	1 41 0                  # stencil.c:41:0
	movq	5416(%rsp), %rdi        # 8-byte Reload
	movq	5408(%rsp), %rsi        # 8-byte Reload
	movq	%rax, %rdx
	movq	5440(%rsp), %rcx        # 8-byte Reload
	movq	5616(%rsp), %r8         # 8-byte Reload
	movq	6160(%rsp), %r9         # 8-byte Reload
	movq	5608(%rsp), %r10        # 8-byte Reload
	movq	%r10, (%rsp)
	movq	%rax, 5344(%rsp)        # 8-byte Spill
	callq	trace_logger_log_int
	movq	5648(%rsp), %rdi        # 8-byte Reload
	movq	5640(%rsp), %rsi        # 8-byte Reload
	movq	5632(%rsp), %rdx        # 8-byte Reload
	movq	5624(%rsp), %rcx        # 8-byte Reload
	movq	6064(%rsp), %r8         # 8-byte Reload
	movl	5404(%rsp), %r9d        # 4-byte Reload
	movl	$1, (%rsp)
	callq	trace_logger_log0
	movq	5392(%rsp), %rdi        # 8-byte Reload
	movq	5408(%rsp), %rsi        # 8-byte Reload
	movq	5672(%rsp), %rdx        # 8-byte Reload
	movq	6160(%rsp), %rcx        # 8-byte Reload
	movq	5664(%rsp), %r8         # 8-byte Reload
	movq	6160(%rsp), %r9         # 8-byte Reload
	movq	5656(%rsp), %rax        # 8-byte Reload
	movq	%rax, (%rsp)
	callq	trace_logger_log_int
	movq	5440(%rsp), %rdi        # 8-byte Reload
	movq	5408(%rsp), %rsi        # 8-byte Reload
	movq	5448(%rsp), %rdx        # 8-byte Reload
	movq	5440(%rsp), %rcx        # 8-byte Reload
	movq	5688(%rsp), %r8         # 8-byte Reload
	movq	6160(%rsp), %r9         # 8-byte Reload
	movq	5680(%rsp), %rax        # 8-byte Reload
	movq	%rax, (%rsp)
	callq	trace_logger_log_int
	movq	5448(%rsp), %rax        # 8-byte Reload
	addq	$12, %rax
	.loc	1 46 0                  # stencil.c:46:0
	movq	5416(%rsp), %rdi        # 8-byte Reload
	movq	5408(%rsp), %rsi        # 8-byte Reload
	movq	%rax, %rdx
	movq	5440(%rsp), %rcx        # 8-byte Reload
	movq	5704(%rsp), %r8         # 8-byte Reload
	movq	6160(%rsp), %r9         # 8-byte Reload
	movq	5696(%rsp), %r10        # 8-byte Reload
	movq	%r10, (%rsp)
	movq	%rax, 5336(%rsp)        # 8-byte Spill
	callq	trace_logger_log_int
	movq	5736(%rsp), %rdi        # 8-byte Reload
	movq	5728(%rsp), %rsi        # 8-byte Reload
	movq	5720(%rsp), %rdx        # 8-byte Reload
	movq	5712(%rsp), %rcx        # 8-byte Reload
	movq	6064(%rsp), %r8         # 8-byte Reload
	movl	5404(%rsp), %r9d        # 4-byte Reload
	movl	$1, (%rsp)
	callq	trace_logger_log0
	movq	5392(%rsp), %rdi        # 8-byte Reload
	movq	5408(%rsp), %rsi        # 8-byte Reload
	movq	5760(%rsp), %rdx        # 8-byte Reload
	movq	6160(%rsp), %rcx        # 8-byte Reload
	movq	5752(%rsp), %r8         # 8-byte Reload
	movq	6160(%rsp), %r9         # 8-byte Reload
	movq	5744(%rsp), %rax        # 8-byte Reload
	movq	%rax, (%rsp)
	callq	trace_logger_log_int
	movq	5440(%rsp), %rdi        # 8-byte Reload
	movq	5408(%rsp), %rsi        # 8-byte Reload
	movq	5448(%rsp), %rdx        # 8-byte Reload
	movq	5440(%rsp), %rcx        # 8-byte Reload
	movq	5776(%rsp), %r8         # 8-byte Reload
	movq	6160(%rsp), %r9         # 8-byte Reload
	movq	5768(%rsp), %rax        # 8-byte Reload
	movq	%rax, (%rsp)
	callq	trace_logger_log_int
	movq	5448(%rsp), %rax        # 8-byte Reload
	addq	$16, %rax
	.loc	1 51 0                  # stencil.c:51:0
	movq	5416(%rsp), %rdi        # 8-byte Reload
	movq	5408(%rsp), %rsi        # 8-byte Reload
	movq	%rax, %rdx
	movq	5440(%rsp), %rcx        # 8-byte Reload
	movq	5792(%rsp), %r8         # 8-byte Reload
	movq	6160(%rsp), %r9         # 8-byte Reload
	movq	5784(%rsp), %r10        # 8-byte Reload
	movq	%r10, (%rsp)
	movq	%rax, 5328(%rsp)        # 8-byte Spill
	callq	trace_logger_log_int
	movq	5824(%rsp), %rdi        # 8-byte Reload
	movq	5816(%rsp), %rsi        # 8-byte Reload
	movq	5808(%rsp), %rdx        # 8-byte Reload
	movq	5800(%rsp), %rcx        # 8-byte Reload
	movq	6064(%rsp), %r8         # 8-byte Reload
	movl	5404(%rsp), %r9d        # 4-byte Reload
	movl	$1, (%rsp)
	callq	trace_logger_log0
	movq	5392(%rsp), %rdi        # 8-byte Reload
	movq	5408(%rsp), %rsi        # 8-byte Reload
	movq	5848(%rsp), %rdx        # 8-byte Reload
	movq	6160(%rsp), %rcx        # 8-byte Reload
	movq	5840(%rsp), %r8         # 8-byte Reload
	movq	6160(%rsp), %r9         # 8-byte Reload
	movq	5832(%rsp), %rax        # 8-byte Reload
	movq	%rax, (%rsp)
	callq	trace_logger_log_int
	movq	5440(%rsp), %rdi        # 8-byte Reload
	movq	5408(%rsp), %rsi        # 8-byte Reload
	movq	5448(%rsp), %rdx        # 8-byte Reload
	movq	5440(%rsp), %rcx        # 8-byte Reload
	movq	5864(%rsp), %r8         # 8-byte Reload
	movq	6160(%rsp), %r9         # 8-byte Reload
	movq	5856(%rsp), %rax        # 8-byte Reload
	movq	%rax, (%rsp)
	callq	trace_logger_log_int
	movq	5448(%rsp), %rax        # 8-byte Reload
	addq	$20, %rax
	.loc	1 58 0                  # stencil.c:58:0
	movq	5416(%rsp), %rdi        # 8-byte Reload
	movq	5408(%rsp), %rsi        # 8-byte Reload
	movq	%rax, %rdx
	movq	5440(%rsp), %rcx        # 8-byte Reload
	movq	5880(%rsp), %r8         # 8-byte Reload
	movq	6160(%rsp), %r9         # 8-byte Reload
	movq	5872(%rsp), %r10        # 8-byte Reload
	movq	%r10, (%rsp)
	movq	%rax, 5320(%rsp)        # 8-byte Spill
	callq	trace_logger_log_int
	movq	5912(%rsp), %rdi        # 8-byte Reload
	movq	5904(%rsp), %rsi        # 8-byte Reload
	movq	5896(%rsp), %rdx        # 8-byte Reload
	movq	5888(%rsp), %rcx        # 8-byte Reload
	movq	6064(%rsp), %r8         # 8-byte Reload
	movl	5404(%rsp), %r9d        # 4-byte Reload
	movl	$1, (%rsp)
	callq	trace_logger_log0
	movq	5392(%rsp), %rdi        # 8-byte Reload
	movq	5408(%rsp), %rsi        # 8-byte Reload
	movq	5936(%rsp), %rdx        # 8-byte Reload
	movq	6160(%rsp), %rcx        # 8-byte Reload
	movq	5928(%rsp), %r8         # 8-byte Reload
	movq	6160(%rsp), %r9         # 8-byte Reload
	movq	5920(%rsp), %rax        # 8-byte Reload
	movq	%rax, (%rsp)
	callq	trace_logger_log_int
	movq	5440(%rsp), %rdi        # 8-byte Reload
	movq	5408(%rsp), %rsi        # 8-byte Reload
	movq	5448(%rsp), %rdx        # 8-byte Reload
	movq	5440(%rsp), %rcx        # 8-byte Reload
	movq	5952(%rsp), %r8         # 8-byte Reload
	movq	6160(%rsp), %r9         # 8-byte Reload
	movq	5944(%rsp), %rax        # 8-byte Reload
	movq	%rax, (%rsp)
	callq	trace_logger_log_int
	movq	5448(%rsp), %rax        # 8-byte Reload
	addq	$24, %rax
	.loc	1 63 0                  # stencil.c:63:0
	movq	5416(%rsp), %rdi        # 8-byte Reload
	movq	5408(%rsp), %rsi        # 8-byte Reload
	movq	%rax, %rdx
	movq	5440(%rsp), %rcx        # 8-byte Reload
	movq	5968(%rsp), %r8         # 8-byte Reload
	movq	6160(%rsp), %r9         # 8-byte Reload
	movq	5960(%rsp), %r10        # 8-byte Reload
	movq	%r10, (%rsp)
	movq	%rax, 5312(%rsp)        # 8-byte Spill
	callq	trace_logger_log_int
	movq	6000(%rsp), %rdi        # 8-byte Reload
	movq	5992(%rsp), %rsi        # 8-byte Reload
	movq	5984(%rsp), %rdx        # 8-byte Reload
	movq	5976(%rsp), %rcx        # 8-byte Reload
	movq	6064(%rsp), %r8         # 8-byte Reload
	movl	5404(%rsp), %r9d        # 4-byte Reload
	movl	$1, (%rsp)
	callq	trace_logger_log0
	movq	5392(%rsp), %rdi        # 8-byte Reload
	movq	5408(%rsp), %rsi        # 8-byte Reload
	movq	6024(%rsp), %rdx        # 8-byte Reload
	movq	6160(%rsp), %rcx        # 8-byte Reload
	movq	6016(%rsp), %r8         # 8-byte Reload
	movq	6160(%rsp), %r9         # 8-byte Reload
	movq	6008(%rsp), %rax        # 8-byte Reload
	movq	%rax, (%rsp)
	callq	trace_logger_log_int
	movq	5440(%rsp), %rdi        # 8-byte Reload
	movq	5408(%rsp), %rsi        # 8-byte Reload
	movq	5448(%rsp), %rdx        # 8-byte Reload
	movq	5440(%rsp), %rcx        # 8-byte Reload
	movq	6040(%rsp), %r8         # 8-byte Reload
	movq	6160(%rsp), %r9         # 8-byte Reload
	movq	6032(%rsp), %rax        # 8-byte Reload
	movq	%rax, (%rsp)
	callq	trace_logger_log_int
	movq	5448(%rsp), %rax        # 8-byte Reload
	addq	$28, %rax
	.loc	1 68 0                  # stencil.c:68:0
	movq	5416(%rsp), %rdi        # 8-byte Reload
	movq	5408(%rsp), %rsi        # 8-byte Reload
	movq	%rax, %rdx
	movq	5440(%rsp), %rcx        # 8-byte Reload
	movq	6056(%rsp), %r8         # 8-byte Reload
	movq	6160(%rsp), %r9         # 8-byte Reload
	movq	6048(%rsp), %r10        # 8-byte Reload
	movq	%r10, (%rsp)
	movq	%rax, 5304(%rsp)        # 8-byte Spill
	callq	trace_logger_log_int
	movq	6096(%rsp), %rdi        # 8-byte Reload
	movq	6088(%rsp), %rsi        # 8-byte Reload
	movq	6080(%rsp), %rdx        # 8-byte Reload
	movq	6072(%rsp), %rcx        # 8-byte Reload
	movq	6064(%rsp), %r8         # 8-byte Reload
	movl	5404(%rsp), %r9d        # 4-byte Reload
	movl	$1, (%rsp)
	callq	trace_logger_log0
	movq	5392(%rsp), %rdi        # 8-byte Reload
	movq	5408(%rsp), %rsi        # 8-byte Reload
	movq	6120(%rsp), %rdx        # 8-byte Reload
	movq	6160(%rsp), %rcx        # 8-byte Reload
	movq	6112(%rsp), %r8         # 8-byte Reload
	movq	6160(%rsp), %r9         # 8-byte Reload
	movq	6104(%rsp), %rax        # 8-byte Reload
	movq	%rax, (%rsp)
	callq	trace_logger_log_int
	movq	5440(%rsp), %rdi        # 8-byte Reload
	movq	5408(%rsp), %rsi        # 8-byte Reload
	movq	5448(%rsp), %rdx        # 8-byte Reload
	movq	5440(%rsp), %rcx        # 8-byte Reload
	movq	6136(%rsp), %r8         # 8-byte Reload
	movq	6160(%rsp), %r9         # 8-byte Reload
	movq	6128(%rsp), %rax        # 8-byte Reload
	movq	%rax, (%rsp)
	callq	trace_logger_log_int
	movq	5448(%rsp), %rax        # 8-byte Reload
	addq	$32, %rax
.Ltmp24:
	.loc	1 14 0                  # stencil.c:14:0
	movq	5416(%rsp), %rdi        # 8-byte Reload
	movq	5408(%rsp), %rsi        # 8-byte Reload
	movq	%rax, %rdx
	movq	5440(%rsp), %rcx        # 8-byte Reload
	movq	6152(%rsp), %r8         # 8-byte Reload
	movq	6160(%rsp), %r9         # 8-byte Reload
	movq	6144(%rsp), %r10        # 8-byte Reload
	movq	%r10, (%rsp)
	movq	%rax, 5296(%rsp)        # 8-byte Spill
	callq	trace_logger_log_int
	movq	5368(%rsp), %rdi        # 8-byte Reload
	movq	5360(%rsp), %rsi        # 8-byte Reload
	movq	5376(%rsp), %rdx        # 8-byte Reload
	movq	5384(%rsp), %rcx        # 8-byte Reload
	movq	5392(%rsp), %r8         # 8-byte Reload
	movl	5404(%rsp), %r9d        # 4-byte Reload
	movl	$1, (%rsp)
	callq	trace_logger_log0
	movq	5440(%rsp), %rdi        # 8-byte Reload
	movq	6160(%rsp), %rsi        # 8-byte Reload
	movq	6160(%rsp), %rdx        # 8-byte Reload
	movq	5440(%rsp), %rcx        # 8-byte Reload
	movq	5432(%rsp), %r8         # 8-byte Reload
	movq	6160(%rsp), %r9         # 8-byte Reload
	movq	5424(%rsp), %rax        # 8-byte Reload
	movq	%rax, (%rsp)
	callq	trace_logger_log_int
	movq	6160(%rsp), %rax        # 8-byte Reload
	movq	%rax, 5288(%rsp)        # 8-byte Spill
.Ltmp25:
.LBB0_1:                                # %.preheader
                                        # =>This Loop Header: Depth=1
                                        #     Child Loop BB0_2 Depth 2
	movq	5288(%rsp), %rax        # 8-byte Reload
	movabsq	$0, %rcx
	movabsq	$1, %rdx
	leaq	.L.str100, %r8
	leaq	.L.str101, %rsi
	movabsq	$15, %rdi
	leaq	.L.str97, %r9
	leaq	.L.str98, %r10
	leaq	.L.str99, %r11
	movabsq	$2, %rbx
	movl	$1, %ebp
	movabsq	$19134, %r14            # imm = 0x4ABE
	movabsq	$64, %r15
	leaq	.L.str95, %r12
	leaq	.L.str96, %r13
	movq	%rax, 5280(%rsp)        # 8-byte Spill
	leaq	.L.str93, %rax
	movq	%rax, 5272(%rsp)        # 8-byte Spill
	leaq	.L.str94, %rax
	movq	%rax, 5264(%rsp)        # 8-byte Spill
	movabsq	$5, %rax
	movq	%rax, 5256(%rsp)        # 8-byte Spill
	leaq	.L.str91, %rax
	movq	%rax, 5248(%rsp)        # 8-byte Spill
	leaq	.L.str92, %rax
	movq	%rax, 5240(%rsp)        # 8-byte Spill
	movabsq	$20, %rax
	movq	%rax, 5232(%rsp)        # 8-byte Spill
	leaq	.L.str88, %rax
	movq	%rax, 5224(%rsp)        # 8-byte Spill
	leaq	.L.str89, %rax
	movq	%rax, 5216(%rsp)        # 8-byte Spill
	leaq	.L.str90, %rax
	movq	%rax, 5208(%rsp)        # 8-byte Spill
	leaq	.L.str86, %rax
	movq	%rax, 5200(%rsp)        # 8-byte Spill
	leaq	.L.str87, %rax
	movq	%rax, 5192(%rsp)        # 8-byte Spill
	leaq	.L.str84, %rax
	movq	%rax, 5184(%rsp)        # 8-byte Spill
	leaq	.L.str85, %rax
	movq	%rax, 5176(%rsp)        # 8-byte Spill
	leaq	.L.str82, %rax
	movq	%rax, 5168(%rsp)        # 8-byte Spill
	leaq	.L.str83, %rax
	movq	%rax, 5160(%rsp)        # 8-byte Spill
	movabsq	$-1, %rax
	movq	%rax, 5152(%rsp)        # 8-byte Spill
	leaq	.L.str79, %rax
	movq	%rax, 5144(%rsp)        # 8-byte Spill
	leaq	.L.str80, %rax
	movq	%rax, 5136(%rsp)        # 8-byte Spill
	leaq	.L.str81, %rax
	movq	%rax, 5128(%rsp)        # 8-byte Spill
	movabsq	$48, %rax
	.loc	1 20 0                  # stencil.c:20:0
.Ltmp26:
	movq	%rax, 5120(%rsp)        # 8-byte Spill
	movq	5152(%rsp), %rax        # 8-byte Reload
	movq	%rdi, 5112(%rsp)        # 8-byte Spill
	movq	%rax, %rdi
	movq	5144(%rsp), %rax        # 8-byte Reload
	movq	%rsi, 5104(%rsp)        # 8-byte Spill
	movq	%rax, %rsi
	movq	5136(%rsp), %rax        # 8-byte Reload
	movq	%rdx, 5096(%rsp)        # 8-byte Spill
	movq	%rax, %rdx
	movq	5128(%rsp), %rax        # 8-byte Reload
	movq	%rcx, 5088(%rsp)        # 8-byte Spill
	movq	%rax, %rcx
	movq	5120(%rsp), %rax        # 8-byte Reload
	movq	%r8, 5080(%rsp)         # 8-byte Spill
	movq	%rax, %r8
	movq	%r9, 5072(%rsp)         # 8-byte Spill
	movl	%ebp, %r9d
	movl	$1, (%rsp)
	movq	%r14, 5064(%rsp)        # 8-byte Spill
	movq	%r15, 5056(%rsp)        # 8-byte Spill
	movl	%ebp, 5052(%rsp)        # 4-byte Spill
	movq	%r12, 5040(%rsp)        # 8-byte Spill
	movq	%r13, 5032(%rsp)        # 8-byte Spill
	movq	%rbx, 5024(%rsp)        # 8-byte Spill
	movq	%r10, 5016(%rsp)        # 8-byte Spill
	movq	%r11, 5008(%rsp)        # 8-byte Spill
	callq	trace_logger_log0
	movq	5024(%rsp), %rdi        # 8-byte Reload
	movq	5056(%rsp), %rsi        # 8-byte Reload
	movq	5088(%rsp), %rdx        # 8-byte Reload
	movq	5096(%rsp), %rcx        # 8-byte Reload
	movq	5168(%rsp), %r8         # 8-byte Reload
	movq	5096(%rsp), %r9         # 8-byte Reload
	movq	5160(%rsp), %rax        # 8-byte Reload
	movq	%rax, (%rsp)
	callq	trace_logger_log_int
	movq	5096(%rsp), %rdi        # 8-byte Reload
	movq	5056(%rsp), %rsi        # 8-byte Reload
	movq	5088(%rsp), %rdx        # 8-byte Reload
	movq	5088(%rsp), %rcx        # 8-byte Reload
	movq	5184(%rsp), %r8         # 8-byte Reload
	movq	5096(%rsp), %r9         # 8-byte Reload
	movq	5176(%rsp), %rax        # 8-byte Reload
	movq	%rax, (%rsp)
	callq	trace_logger_log_int
	movq	5064(%rsp), %rdi        # 8-byte Reload
	movq	5056(%rsp), %rsi        # 8-byte Reload
	movq	5280(%rsp), %rdx        # 8-byte Reload
	movq	5096(%rsp), %rcx        # 8-byte Reload
	movq	5200(%rsp), %r8         # 8-byte Reload
	movq	5088(%rsp), %r9         # 8-byte Reload
	movq	5192(%rsp), %rax        # 8-byte Reload
	movq	%rax, (%rsp)
	callq	trace_logger_log_int
	movq	5232(%rsp), %rdi        # 8-byte Reload
	movq	5224(%rsp), %rsi        # 8-byte Reload
	movq	5216(%rsp), %rdx        # 8-byte Reload
	movq	5208(%rsp), %rcx        # 8-byte Reload
	movq	5232(%rsp), %r8         # 8-byte Reload
	movl	5052(%rsp), %r9d        # 4-byte Reload
	movl	$1, (%rsp)
	callq	trace_logger_log0
	movq	5024(%rsp), %rdi        # 8-byte Reload
	movq	5056(%rsp), %rsi        # 8-byte Reload
	movq	5256(%rsp), %rdx        # 8-byte Reload
	movq	5088(%rsp), %rcx        # 8-byte Reload
	movq	5248(%rsp), %r8         # 8-byte Reload
	movq	5088(%rsp), %r9         # 8-byte Reload
	movq	5240(%rsp), %rax        # 8-byte Reload
	movq	%rax, (%rsp)
	callq	trace_logger_log_int
	movq	5096(%rsp), %rdi        # 8-byte Reload
	movq	5056(%rsp), %rsi        # 8-byte Reload
	movq	5280(%rsp), %rdx        # 8-byte Reload
	movq	5096(%rsp), %rcx        # 8-byte Reload
	movq	5272(%rsp), %r8         # 8-byte Reload
	movq	5088(%rsp), %r9         # 8-byte Reload
	movq	5264(%rsp), %rax        # 8-byte Reload
	movq	%rax, (%rsp)
	callq	trace_logger_log_int
	movq	5280(%rsp), %rax        # 8-byte Reload
	shlq	$5, %rax
.Ltmp27:
	.loc	1 15 0                  # stencil.c:15:0
	movq	5064(%rsp), %rdi        # 8-byte Reload
	movq	5056(%rsp), %rsi        # 8-byte Reload
	movq	%rax, %rdx
	movq	5096(%rsp), %rcx        # 8-byte Reload
	movq	5040(%rsp), %r8         # 8-byte Reload
	movq	5088(%rsp), %r9         # 8-byte Reload
	movq	5032(%rsp), %r10        # 8-byte Reload
	movq	%r10, (%rsp)
	movq	%rax, 5000(%rsp)        # 8-byte Spill
	callq	trace_logger_log_int
	movq	5112(%rsp), %rdi        # 8-byte Reload
	movq	5072(%rsp), %rsi        # 8-byte Reload
	movq	5016(%rsp), %rdx        # 8-byte Reload
	movq	5008(%rsp), %rcx        # 8-byte Reload
	movq	5024(%rsp), %r8         # 8-byte Reload
	movl	5052(%rsp), %r9d        # 4-byte Reload
	movl	$1, (%rsp)
	callq	trace_logger_log0
	movq	5096(%rsp), %rdi        # 8-byte Reload
	movq	5088(%rsp), %rsi        # 8-byte Reload
	movq	5088(%rsp), %rdx        # 8-byte Reload
	movq	5096(%rsp), %rcx        # 8-byte Reload
	movq	5080(%rsp), %r8         # 8-byte Reload
	movq	5088(%rsp), %r9         # 8-byte Reload
	movq	5104(%rsp), %rax        # 8-byte Reload
	movq	%rax, (%rsp)
	callq	trace_logger_log_int
	movq	5088(%rsp), %rax        # 8-byte Reload
	movq	%rax, 4992(%rsp)        # 8-byte Spill
.LBB0_2:                                #   Parent Loop BB0_1 Depth=1
                                        # =>  This Inner Loop Header: Depth=2
	movq	4992(%rsp), %rax        # 8-byte Reload
	movabsq	$1, %rcx
	leaq	.L.str593, %r8
	movabsq	$0, %rdx
	leaq	.L.str594, %rsi
	movabsq	$2, %rdi
	leaq	.L.str591, %r9
	leaq	.L.str592, %r10
	movabsq	$3, %r11
	leaq	.L.str589, %rbx
	leaq	.L.str590, %r14
	movabsq	$15, %r15
	leaq	.L.str586, %r12
	leaq	.L.str587, %r13
	leaq	.L.str588, %rbp
	movq	%rsi, 4984(%rsp)        # 8-byte Spill
	movl	$1, %esi
	movq	%rax, 4976(%rsp)        # 8-byte Spill
	movabsq	$19134, %rax            # imm = 0x4ABE
	movq	%rax, 4968(%rsp)        # 8-byte Spill
	leaq	.L.str584, %rax
	movq	%rax, 4960(%rsp)        # 8-byte Spill
	leaq	.L.str585, %rax
	movq	%rax, 4952(%rsp)        # 8-byte Spill
	movabsq	$64, %rax
	movq	%rax, 4944(%rsp)        # 8-byte Spill
	leaq	.L.str582, %rax
	movq	%rax, 4936(%rsp)        # 8-byte Spill
	leaq	.L.str583, %rax
	movq	%rax, 4928(%rsp)        # 8-byte Spill
	movabsq	$30, %rax
	movq	%rax, 4920(%rsp)        # 8-byte Spill
	leaq	.L.str580, %rax
	movq	%rax, 4912(%rsp)        # 8-byte Spill
	leaq	.L.str581, %rax
	movq	%rax, 4904(%rsp)        # 8-byte Spill
	leaq	.L.str577, %rax
	movq	%rax, 4896(%rsp)        # 8-byte Spill
	leaq	.L.str578, %rax
	movq	%rax, 4888(%rsp)        # 8-byte Spill
	leaq	.L.str579, %rax
	movq	%rax, 4880(%rsp)        # 8-byte Spill
	movabsq	$46, %rax
	movq	%rax, 4872(%rsp)        # 8-byte Spill
	leaq	.L.str575, %rax
	movq	%rax, 4864(%rsp)        # 8-byte Spill
	leaq	.L.str576, %rax
	movq	%rax, 4856(%rsp)        # 8-byte Spill
	leaq	.L.str573, %rax
	movq	%rax, 4848(%rsp)        # 8-byte Spill
	leaq	.L.str574, %rax
	movq	%rax, 4840(%rsp)        # 8-byte Spill
	leaq	.L.str571, %rax
	movq	%rax, 4832(%rsp)        # 8-byte Spill
	leaq	.L.str572, %rax
	movq	%rax, 4824(%rsp)        # 8-byte Spill
	leaq	.L.str568, %rax
	movq	%rax, 4816(%rsp)        # 8-byte Spill
	leaq	.L.str569, %rax
	movq	%rax, 4808(%rsp)        # 8-byte Spill
	leaq	.L.str570, %rax
	movq	%rax, 4800(%rsp)        # 8-byte Spill
	movabsq	$8, %rax
	movq	%rax, 4792(%rsp)        # 8-byte Spill
	movabsq	$32, %rax
	movq	%rax, 4784(%rsp)        # 8-byte Spill
	leaq	.L.str566, %rax
	movq	%rax, 4776(%rsp)        # 8-byte Spill
	leaq	.L.str567, %rax
	movq	%rax, 4768(%rsp)        # 8-byte Spill
	leaq	.L.str564, %rax
	movq	%rax, 4760(%rsp)        # 8-byte Spill
	leaq	.L.str565, %rax
	movq	%rax, 4752(%rsp)        # 8-byte Spill
	movabsq	$72, %rax
	movq	%rax, 4744(%rsp)        # 8-byte Spill
	leaq	.L.str561, %rax
	movq	%rax, 4736(%rsp)        # 8-byte Spill
	leaq	.L.str562, %rax
	movq	%rax, 4728(%rsp)        # 8-byte Spill
	leaq	.L.str563, %rax
	movq	%rax, 4720(%rsp)        # 8-byte Spill
	movabsq	$28, %rax
	movq	%rax, 4712(%rsp)        # 8-byte Spill
	leaq	.L.str559, %rax
	movq	%rax, 4704(%rsp)        # 8-byte Spill
	leaq	.L.str560, %rax
	movq	%rax, 4696(%rsp)        # 8-byte Spill
	leaq	.L.str557, %rax
	movq	%rax, 4688(%rsp)        # 8-byte Spill
	leaq	.L.str558, %rax
	movq	%rax, 4680(%rsp)        # 8-byte Spill
	leaq	.L.str555, %rax
	movq	%rax, 4672(%rsp)        # 8-byte Spill
	leaq	.L.str556, %rax
	movq	%rax, 4664(%rsp)        # 8-byte Spill
	leaq	.L.str552, %rax
	movq	%rax, 4656(%rsp)        # 8-byte Spill
	leaq	.L.str553, %rax
	movq	%rax, 4648(%rsp)        # 8-byte Spill
	leaq	.L.str554, %rax
	movq	%rax, 4640(%rsp)        # 8-byte Spill
	movabsq	$29, %rax
	movq	%rax, 4632(%rsp)        # 8-byte Spill
	leaq	.L.str550, %rax
	movq	%rax, 4624(%rsp)        # 8-byte Spill
	leaq	.L.str551, %rax
	movq	%rax, 4616(%rsp)        # 8-byte Spill
	leaq	.L.str548, %rax
	movq	%rax, 4608(%rsp)        # 8-byte Spill
	leaq	.L.str549, %rax
	movq	%rax, 4600(%rsp)        # 8-byte Spill
	leaq	.L.str546, %rax
	movq	%rax, 4592(%rsp)        # 8-byte Spill
	leaq	.L.str547, %rax
	movq	%rax, 4584(%rsp)        # 8-byte Spill
	movabsq	$69, %rax
	movq	%rax, 4576(%rsp)        # 8-byte Spill
	leaq	.L.str543, %rax
	movq	%rax, 4568(%rsp)        # 8-byte Spill
	leaq	.L.str544, %rax
	movq	%rax, 4560(%rsp)        # 8-byte Spill
	leaq	.L.str545, %rax
	movq	%rax, 4552(%rsp)        # 8-byte Spill
	leaq	.L.str541, %rax
	movq	%rax, 4544(%rsp)        # 8-byte Spill
	leaq	.L.str542, %rax
	movq	%rax, 4536(%rsp)        # 8-byte Spill
	leaq	.L.str539, %rax
	movq	%rax, 4528(%rsp)        # 8-byte Spill
	leaq	.L.str540, %rax
	movq	%rax, 4520(%rsp)        # 8-byte Spill
	leaq	.L.str537, %rax
	movq	%rax, 4512(%rsp)        # 8-byte Spill
	leaq	.L.str538, %rax
	movq	%rax, 4504(%rsp)        # 8-byte Spill
	movabsq	$68, %rax
	movq	%rax, 4496(%rsp)        # 8-byte Spill
	leaq	.L.str534, %rax
	movq	%rax, 4488(%rsp)        # 8-byte Spill
	leaq	.L.str535, %rax
	movq	%rax, 4480(%rsp)        # 8-byte Spill
	leaq	.L.str536, %rax
	movq	%rax, 4472(%rsp)        # 8-byte Spill
	movabsq	$12, %rax
	movq	%rax, 4464(%rsp)        # 8-byte Spill
	leaq	.L.str532, %rax
	movq	%rax, 4456(%rsp)        # 8-byte Spill
	leaq	.L.str533, %rax
	movq	%rax, 4448(%rsp)        # 8-byte Spill
	leaq	.L.str530, %rax
	movq	%rax, 4440(%rsp)        # 8-byte Spill
	leaq	.L.str531, %rax
	movq	%rax, 4432(%rsp)        # 8-byte Spill
	leaq	.L.str527, %rax
	movq	%rax, 4424(%rsp)        # 8-byte Spill
	leaq	.L.str528, %rax
	movq	%rax, 4416(%rsp)        # 8-byte Spill
	leaq	.L.str529, %rax
	movq	%rax, 4408(%rsp)        # 8-byte Spill
	movabsq	$27, %rax
	movq	%rax, 4400(%rsp)        # 8-byte Spill
	leaq	.L.str525, %rax
	movq	%rax, 4392(%rsp)        # 8-byte Spill
	leaq	.L.str526, %rax
	movq	%rax, 4384(%rsp)        # 8-byte Spill
	leaq	.L.str523, %rax
	movq	%rax, 4376(%rsp)        # 8-byte Spill
	leaq	.L.str524, %rax
	movq	%rax, 4368(%rsp)        # 8-byte Spill
	leaq	.L.str521, %rax
	movq	%rax, 4360(%rsp)        # 8-byte Spill
	leaq	.L.str522, %rax
	movq	%rax, 4352(%rsp)        # 8-byte Spill
	leaq	.L.str518, %rax
	movq	%rax, 4344(%rsp)        # 8-byte Spill
	leaq	.L.str519, %rax
	movq	%rax, 4336(%rsp)        # 8-byte Spill
	leaq	.L.str520, %rax
	movq	%rax, 4328(%rsp)        # 8-byte Spill
	leaq	.L.str516, %rax
	movq	%rax, 4320(%rsp)        # 8-byte Spill
	leaq	.L.str517, %rax
	movq	%rax, 4312(%rsp)        # 8-byte Spill
	leaq	.L.str514, %rax
	movq	%rax, 4304(%rsp)        # 8-byte Spill
	leaq	.L.str515, %rax
	movq	%rax, 4296(%rsp)        # 8-byte Spill
	leaq	.L.str511, %rax
	movq	%rax, 4288(%rsp)        # 8-byte Spill
	leaq	.L.str512, %rax
	movq	%rax, 4280(%rsp)        # 8-byte Spill
	leaq	.L.str513, %rax
	movq	%rax, 4272(%rsp)        # 8-byte Spill
	leaq	.L.str509, %rax
	movq	%rax, 4264(%rsp)        # 8-byte Spill
	leaq	.L.str510, %rax
	movq	%rax, 4256(%rsp)        # 8-byte Spill
	leaq	.L.str507, %rax
	movq	%rax, 4248(%rsp)        # 8-byte Spill
	leaq	.L.str508, %rax
	movq	%rax, 4240(%rsp)        # 8-byte Spill
	movabsq	$66, %rax
	movq	%rax, 4232(%rsp)        # 8-byte Spill
	leaq	.L.str505, %rax
	movq	%rax, 4224(%rsp)        # 8-byte Spill
	leaq	.L.str506, %rax
	movq	%rax, 4216(%rsp)        # 8-byte Spill
	movabsq	$65, %rax
	movq	%rax, 4208(%rsp)        # 8-byte Spill
	leaq	.L.str502, %rax
	movq	%rax, 4200(%rsp)        # 8-byte Spill
	leaq	.L.str503, %rax
	movq	%rax, 4192(%rsp)        # 8-byte Spill
	leaq	.L.str504, %rax
	movq	%rax, 4184(%rsp)        # 8-byte Spill
	leaq	.L.str500, %rax
	movq	%rax, 4176(%rsp)        # 8-byte Spill
	leaq	.L.str501, %rax
	movq	%rax, 4168(%rsp)        # 8-byte Spill
	leaq	.L.str498, %rax
	movq	%rax, 4160(%rsp)        # 8-byte Spill
	leaq	.L.str499, %rax
	movq	%rax, 4152(%rsp)        # 8-byte Spill
	leaq	.L.str496, %rax
	movq	%rax, 4144(%rsp)        # 8-byte Spill
	leaq	.L.str497, %rax
	movq	%rax, 4136(%rsp)        # 8-byte Spill
	leaq	.L.str493, %rax
	movq	%rax, 4128(%rsp)        # 8-byte Spill
	leaq	.L.str494, %rax
	movq	%rax, 4120(%rsp)        # 8-byte Spill
	leaq	.L.str495, %rax
	movq	%rax, 4112(%rsp)        # 8-byte Spill
	leaq	.L.str491, %rax
	movq	%rax, 4104(%rsp)        # 8-byte Spill
	leaq	.L.str492, %rax
	movq	%rax, 4096(%rsp)        # 8-byte Spill
	leaq	.L.str489, %rax
	movq	%rax, 4088(%rsp)        # 8-byte Spill
	leaq	.L.str490, %rax
	movq	%rax, 4080(%rsp)        # 8-byte Spill
	leaq	.L.str487, %rax
	movq	%rax, 4072(%rsp)        # 8-byte Spill
	leaq	.L.str488, %rax
	movq	%rax, 4064(%rsp)        # 8-byte Spill
	movabsq	$63, %rax
	movq	%rax, 4056(%rsp)        # 8-byte Spill
	leaq	.L.str484, %rax
	movq	%rax, 4048(%rsp)        # 8-byte Spill
	leaq	.L.str485, %rax
	movq	%rax, 4040(%rsp)        # 8-byte Spill
	leaq	.L.str486, %rax
	movq	%rax, 4032(%rsp)        # 8-byte Spill
	leaq	.L.str482, %rax
	movq	%rax, 4024(%rsp)        # 8-byte Spill
	leaq	.L.str483, %rax
	movq	%rax, 4016(%rsp)        # 8-byte Spill
	leaq	.L.str480, %rax
	movq	%rax, 4008(%rsp)        # 8-byte Spill
	leaq	.L.str481, %rax
	movq	%rax, 4000(%rsp)        # 8-byte Spill
	leaq	.L.str477, %rax
	movq	%rax, 3992(%rsp)        # 8-byte Spill
	leaq	.L.str478, %rax
	movq	%rax, 3984(%rsp)        # 8-byte Spill
	leaq	.L.str479, %rax
	movq	%rax, 3976(%rsp)        # 8-byte Spill
	leaq	.L.str475, %rax
	movq	%rax, 3968(%rsp)        # 8-byte Spill
	leaq	.L.str476, %rax
	movq	%rax, 3960(%rsp)        # 8-byte Spill
	leaq	.L.str473, %rax
	movq	%rax, 3952(%rsp)        # 8-byte Spill
	leaq	.L.str474, %rax
	movq	%rax, 3944(%rsp)        # 8-byte Spill
	leaq	.L.str471, %rax
	movq	%rax, 3936(%rsp)        # 8-byte Spill
	leaq	.L.str472, %rax
	movq	%rax, 3928(%rsp)        # 8-byte Spill
	leaq	.L.str468, %rax
	movq	%rax, 3920(%rsp)        # 8-byte Spill
	leaq	.L.str469, %rax
	movq	%rax, 3912(%rsp)        # 8-byte Spill
	leaq	.L.str470, %rax
	movq	%rax, 3904(%rsp)        # 8-byte Spill
	leaq	.L.str466, %rax
	movq	%rax, 3896(%rsp)        # 8-byte Spill
	leaq	.L.str467, %rax
	movq	%rax, 3888(%rsp)        # 8-byte Spill
	leaq	.L.str464, %rax
	movq	%rax, 3880(%rsp)        # 8-byte Spill
	leaq	.L.str465, %rax
	movq	%rax, 3872(%rsp)        # 8-byte Spill
	leaq	.L.str461, %rax
	movq	%rax, 3864(%rsp)        # 8-byte Spill
	leaq	.L.str462, %rax
	movq	%rax, 3856(%rsp)        # 8-byte Spill
	leaq	.L.str463, %rax
	movq	%rax, 3848(%rsp)        # 8-byte Spill
	leaq	.L.str459, %rax
	movq	%rax, 3840(%rsp)        # 8-byte Spill
	leaq	.L.str460, %rax
	movq	%rax, 3832(%rsp)        # 8-byte Spill
	leaq	.L.str457, %rax
	movq	%rax, 3824(%rsp)        # 8-byte Spill
	leaq	.L.str458, %rax
	movq	%rax, 3816(%rsp)        # 8-byte Spill
	leaq	.L.str455, %rax
	movq	%rax, 3808(%rsp)        # 8-byte Spill
	leaq	.L.str456, %rax
	movq	%rax, 3800(%rsp)        # 8-byte Spill
	movabsq	$60, %rax
	movq	%rax, 3792(%rsp)        # 8-byte Spill
	leaq	.L.str452, %rax
	movq	%rax, 3784(%rsp)        # 8-byte Spill
	leaq	.L.str453, %rax
	movq	%rax, 3776(%rsp)        # 8-byte Spill
	leaq	.L.str454, %rax
	movq	%rax, 3768(%rsp)        # 8-byte Spill
	leaq	.L.str450, %rax
	movq	%rax, 3760(%rsp)        # 8-byte Spill
	leaq	.L.str451, %rax
	movq	%rax, 3752(%rsp)        # 8-byte Spill
	leaq	.L.str448, %rax
	movq	%rax, 3744(%rsp)        # 8-byte Spill
	leaq	.L.str449, %rax
	movq	%rax, 3736(%rsp)        # 8-byte Spill
	leaq	.L.str446, %rax
	movq	%rax, 3728(%rsp)        # 8-byte Spill
	leaq	.L.str447, %rax
	movq	%rax, 3720(%rsp)        # 8-byte Spill
	movabsq	$59, %rax
	movq	%rax, 3712(%rsp)        # 8-byte Spill
	leaq	.L.str443, %rax
	movq	%rax, 3704(%rsp)        # 8-byte Spill
	leaq	.L.str444, %rax
	movq	%rax, 3696(%rsp)        # 8-byte Spill
	leaq	.L.str445, %rax
	movq	%rax, 3688(%rsp)        # 8-byte Spill
	leaq	.L.str441, %rax
	movq	%rax, 3680(%rsp)        # 8-byte Spill
	leaq	.L.str442, %rax
	movq	%rax, 3672(%rsp)        # 8-byte Spill
	leaq	.L.str439, %rax
	movq	%rax, 3664(%rsp)        # 8-byte Spill
	leaq	.L.str440, %rax
	movq	%rax, 3656(%rsp)        # 8-byte Spill
	leaq	.L.str437, %rax
	movq	%rax, 3648(%rsp)        # 8-byte Spill
	leaq	.L.str438, %rax
	movq	%rax, 3640(%rsp)        # 8-byte Spill
	movabsq	$58, %rax
	movq	%rax, 3632(%rsp)        # 8-byte Spill
	leaq	.L.str434, %rax
	movq	%rax, 3624(%rsp)        # 8-byte Spill
	leaq	.L.str435, %rax
	movq	%rax, 3616(%rsp)        # 8-byte Spill
	leaq	.L.str436, %rax
	movq	%rax, 3608(%rsp)        # 8-byte Spill
	leaq	.L.str432, %rax
	movq	%rax, 3600(%rsp)        # 8-byte Spill
	leaq	.L.str433, %rax
	movq	%rax, 3592(%rsp)        # 8-byte Spill
	leaq	.L.str430, %rax
	movq	%rax, 3584(%rsp)        # 8-byte Spill
	leaq	.L.str431, %rax
	movq	%rax, 3576(%rsp)        # 8-byte Spill
	leaq	.L.str427, %rax
	movq	%rax, 3568(%rsp)        # 8-byte Spill
	leaq	.L.str428, %rax
	movq	%rax, 3560(%rsp)        # 8-byte Spill
	leaq	.L.str429, %rax
	movq	%rax, 3552(%rsp)        # 8-byte Spill
	leaq	.L.str425, %rax
	movq	%rax, 3544(%rsp)        # 8-byte Spill
	leaq	.L.str426, %rax
	movq	%rax, 3536(%rsp)        # 8-byte Spill
	leaq	.L.str423, %rax
	movq	%rax, 3528(%rsp)        # 8-byte Spill
	leaq	.L.str424, %rax
	movq	%rax, 3520(%rsp)        # 8-byte Spill
	leaq	.L.str421, %rax
	movq	%rax, 3512(%rsp)        # 8-byte Spill
	leaq	.L.str422, %rax
	movq	%rax, 3504(%rsp)        # 8-byte Spill
	leaq	.L.str418, %rax
	movq	%rax, 3496(%rsp)        # 8-byte Spill
	leaq	.L.str419, %rax
	movq	%rax, 3488(%rsp)        # 8-byte Spill
	leaq	.L.str420, %rax
	movq	%rax, 3480(%rsp)        # 8-byte Spill
	leaq	.L.str416, %rax
	movq	%rax, 3472(%rsp)        # 8-byte Spill
	leaq	.L.str417, %rax
	movq	%rax, 3464(%rsp)        # 8-byte Spill
	leaq	.L.str414, %rax
	movq	%rax, 3456(%rsp)        # 8-byte Spill
	leaq	.L.str415, %rax
	movq	%rax, 3448(%rsp)        # 8-byte Spill
	leaq	.L.str411, %rax
	movq	%rax, 3440(%rsp)        # 8-byte Spill
	leaq	.L.str412, %rax
	movq	%rax, 3432(%rsp)        # 8-byte Spill
	leaq	.L.str413, %rax
	movq	%rax, 3424(%rsp)        # 8-byte Spill
	leaq	.L.str409, %rax
	movq	%rax, 3416(%rsp)        # 8-byte Spill
	leaq	.L.str410, %rax
	movq	%rax, 3408(%rsp)        # 8-byte Spill
	leaq	.L.str407, %rax
	movq	%rax, 3400(%rsp)        # 8-byte Spill
	leaq	.L.str408, %rax
	movq	%rax, 3392(%rsp)        # 8-byte Spill
	leaq	.L.str405, %rax
	movq	%rax, 3384(%rsp)        # 8-byte Spill
	leaq	.L.str406, %rax
	movq	%rax, 3376(%rsp)        # 8-byte Spill
	movabsq	$56, %rax
	movq	%rax, 3368(%rsp)        # 8-byte Spill
	leaq	.L.str402, %rax
	movq	%rax, 3360(%rsp)        # 8-byte Spill
	leaq	.L.str403, %rax
	movq	%rax, 3352(%rsp)        # 8-byte Spill
	leaq	.L.str404, %rax
	movq	%rax, 3344(%rsp)        # 8-byte Spill
	leaq	.L.str400, %rax
	movq	%rax, 3336(%rsp)        # 8-byte Spill
	leaq	.L.str401, %rax
	movq	%rax, 3328(%rsp)        # 8-byte Spill
	leaq	.L.str398, %rax
	movq	%rax, 3320(%rsp)        # 8-byte Spill
	leaq	.L.str399, %rax
	movq	%rax, 3312(%rsp)        # 8-byte Spill
	leaq	.L.str396, %rax
	movq	%rax, 3304(%rsp)        # 8-byte Spill
	leaq	.L.str397, %rax
	movq	%rax, 3296(%rsp)        # 8-byte Spill
	movabsq	$52, %rax
	movq	%rax, 3288(%rsp)        # 8-byte Spill
	leaq	.L.str393, %rax
	movq	%rax, 3280(%rsp)        # 8-byte Spill
	leaq	.L.str394, %rax
	movq	%rax, 3272(%rsp)        # 8-byte Spill
	leaq	.L.str395, %rax
	movq	%rax, 3264(%rsp)        # 8-byte Spill
	leaq	.L.str391, %rax
	movq	%rax, 3256(%rsp)        # 8-byte Spill
	leaq	.L.str392, %rax
	movq	%rax, 3248(%rsp)        # 8-byte Spill
	leaq	.L.str389, %rax
	movq	%rax, 3240(%rsp)        # 8-byte Spill
	leaq	.L.str390, %rax
	movq	%rax, 3232(%rsp)        # 8-byte Spill
	leaq	.L.str387, %rax
	movq	%rax, 3224(%rsp)        # 8-byte Spill
	leaq	.L.str388, %rax
	movq	%rax, 3216(%rsp)        # 8-byte Spill
	movabsq	$51, %rax
	movq	%rax, 3208(%rsp)        # 8-byte Spill
	leaq	.L.str384, %rax
	movq	%rax, 3200(%rsp)        # 8-byte Spill
	leaq	.L.str385, %rax
	movq	%rax, 3192(%rsp)        # 8-byte Spill
	leaq	.L.str386, %rax
	movq	%rax, 3184(%rsp)        # 8-byte Spill
	leaq	.L.str382, %rax
	movq	%rax, 3176(%rsp)        # 8-byte Spill
	leaq	.L.str383, %rax
	movq	%rax, 3168(%rsp)        # 8-byte Spill
	leaq	.L.str380, %rax
	movq	%rax, 3160(%rsp)        # 8-byte Spill
	leaq	.L.str381, %rax
	movq	%rax, 3152(%rsp)        # 8-byte Spill
	leaq	.L.str377, %rax
	movq	%rax, 3144(%rsp)        # 8-byte Spill
	leaq	.L.str378, %rax
	movq	%rax, 3136(%rsp)        # 8-byte Spill
	leaq	.L.str379, %rax
	movq	%rax, 3128(%rsp)        # 8-byte Spill
	leaq	.L.str375, %rax
	movq	%rax, 3120(%rsp)        # 8-byte Spill
	leaq	.L.str376, %rax
	movq	%rax, 3112(%rsp)        # 8-byte Spill
	leaq	.L.str373, %rax
	movq	%rax, 3104(%rsp)        # 8-byte Spill
	leaq	.L.str374, %rax
	movq	%rax, 3096(%rsp)        # 8-byte Spill
	leaq	.L.str371, %rax
	movq	%rax, 3088(%rsp)        # 8-byte Spill
	leaq	.L.str372, %rax
	movq	%rax, 3080(%rsp)        # 8-byte Spill
	leaq	.L.str368, %rax
	movq	%rax, 3072(%rsp)        # 8-byte Spill
	leaq	.L.str369, %rax
	movq	%rax, 3064(%rsp)        # 8-byte Spill
	leaq	.L.str370, %rax
	movq	%rax, 3056(%rsp)        # 8-byte Spill
	leaq	.L.str366, %rax
	movq	%rax, 3048(%rsp)        # 8-byte Spill
	leaq	.L.str367, %rax
	movq	%rax, 3040(%rsp)        # 8-byte Spill
	leaq	.L.str364, %rax
	movq	%rax, 3032(%rsp)        # 8-byte Spill
	leaq	.L.str365, %rax
	movq	%rax, 3024(%rsp)        # 8-byte Spill
	leaq	.L.str361, %rax
	movq	%rax, 3016(%rsp)        # 8-byte Spill
	leaq	.L.str362, %rax
	movq	%rax, 3008(%rsp)        # 8-byte Spill
	leaq	.L.str363, %rax
	movq	%rax, 3000(%rsp)        # 8-byte Spill
	leaq	.L.str359, %rax
	movq	%rax, 2992(%rsp)        # 8-byte Spill
	leaq	.L.str360, %rax
	movq	%rax, 2984(%rsp)        # 8-byte Spill
	leaq	.L.str357, %rax
	movq	%rax, 2976(%rsp)        # 8-byte Spill
	leaq	.L.str358, %rax
	movq	%rax, 2968(%rsp)        # 8-byte Spill
	movabsq	$34, %rax
	movq	%rax, 2960(%rsp)        # 8-byte Spill
	leaq	.L.str355, %rax
	movq	%rax, 2952(%rsp)        # 8-byte Spill
	leaq	.L.str356, %rax
	movq	%rax, 2944(%rsp)        # 8-byte Spill
	movabsq	$48, %rax
	movq	%rax, 2936(%rsp)        # 8-byte Spill
	leaq	.L.str352, %rax
	movq	%rax, 2928(%rsp)        # 8-byte Spill
	leaq	.L.str353, %rax
	movq	%rax, 2920(%rsp)        # 8-byte Spill
	leaq	.L.str354, %rax
	movq	%rax, 2912(%rsp)        # 8-byte Spill
	leaq	.L.str350, %rax
	movq	%rax, 2904(%rsp)        # 8-byte Spill
	leaq	.L.str351, %rax
	movq	%rax, 2896(%rsp)        # 8-byte Spill
	leaq	.L.str348, %rax
	movq	%rax, 2888(%rsp)        # 8-byte Spill
	leaq	.L.str349, %rax
	movq	%rax, 2880(%rsp)        # 8-byte Spill
	leaq	.L.str346, %rax
	movq	%rax, 2872(%rsp)        # 8-byte Spill
	leaq	.L.str347, %rax
	movq	%rax, 2864(%rsp)        # 8-byte Spill
	movabsq	$47, %rax
	movq	%rax, 2856(%rsp)        # 8-byte Spill
	leaq	.L.str343, %rax
	movq	%rax, 2848(%rsp)        # 8-byte Spill
	leaq	.L.str344, %rax
	movq	%rax, 2840(%rsp)        # 8-byte Spill
	leaq	.L.str345, %rax
	movq	%rax, 2832(%rsp)        # 8-byte Spill
	leaq	.L.str341, %rax
	movq	%rax, 2824(%rsp)        # 8-byte Spill
	leaq	.L.str342, %rax
	movq	%rax, 2816(%rsp)        # 8-byte Spill
	leaq	.L.str339, %rax
	movq	%rax, 2808(%rsp)        # 8-byte Spill
	leaq	.L.str340, %rax
	movq	%rax, 2800(%rsp)        # 8-byte Spill
	leaq	.L.str337, %rax
	movq	%rax, 2792(%rsp)        # 8-byte Spill
	leaq	.L.str338, %rax
	movq	%rax, 2784(%rsp)        # 8-byte Spill
	leaq	.L.str334, %rax
	movq	%rax, 2776(%rsp)        # 8-byte Spill
	leaq	.L.str335, %rax
	movq	%rax, 2768(%rsp)        # 8-byte Spill
	leaq	.L.str336, %rax
	movq	%rax, 2760(%rsp)        # 8-byte Spill
	leaq	.L.str332, %rax
	movq	%rax, 2752(%rsp)        # 8-byte Spill
	leaq	.L.str333, %rax
	movq	%rax, 2744(%rsp)        # 8-byte Spill
	leaq	.L.str330, %rax
	movq	%rax, 2736(%rsp)        # 8-byte Spill
	leaq	.L.str331, %rax
	movq	%rax, 2728(%rsp)        # 8-byte Spill
	leaq	.L.str327, %rax
	movq	%rax, 2720(%rsp)        # 8-byte Spill
	leaq	.L.str328, %rax
	movq	%rax, 2712(%rsp)        # 8-byte Spill
	leaq	.L.str329, %rax
	movq	%rax, 2704(%rsp)        # 8-byte Spill
	leaq	.L.str325, %rax
	movq	%rax, 2696(%rsp)        # 8-byte Spill
	leaq	.L.str326, %rax
	movq	%rax, 2688(%rsp)        # 8-byte Spill
	leaq	.L.str323, %rax
	movq	%rax, 2680(%rsp)        # 8-byte Spill
	leaq	.L.str324, %rax
	movq	%rax, 2672(%rsp)        # 8-byte Spill
	leaq	.L.str321, %rax
	movq	%rax, 2664(%rsp)        # 8-byte Spill
	leaq	.L.str322, %rax
	movq	%rax, 2656(%rsp)        # 8-byte Spill
	leaq	.L.str318, %rax
	movq	%rax, 2648(%rsp)        # 8-byte Spill
	leaq	.L.str319, %rax
	movq	%rax, 2640(%rsp)        # 8-byte Spill
	leaq	.L.str320, %rax
	movq	%rax, 2632(%rsp)        # 8-byte Spill
	leaq	.L.str316, %rax
	movq	%rax, 2624(%rsp)        # 8-byte Spill
	leaq	.L.str317, %rax
	movq	%rax, 2616(%rsp)        # 8-byte Spill
	leaq	.L.str314, %rax
	movq	%rax, 2608(%rsp)        # 8-byte Spill
	leaq	.L.str315, %rax
	movq	%rax, 2600(%rsp)        # 8-byte Spill
	leaq	.L.str311, %rax
	movq	%rax, 2592(%rsp)        # 8-byte Spill
	leaq	.L.str312, %rax
	movq	%rax, 2584(%rsp)        # 8-byte Spill
	leaq	.L.str313, %rax
	movq	%rax, 2576(%rsp)        # 8-byte Spill
	leaq	.L.str309, %rax
	movq	%rax, 2568(%rsp)        # 8-byte Spill
	leaq	.L.str310, %rax
	movq	%rax, 2560(%rsp)        # 8-byte Spill
	leaq	.L.str307, %rax
	movq	%rax, 2552(%rsp)        # 8-byte Spill
	leaq	.L.str308, %rax
	movq	%rax, 2544(%rsp)        # 8-byte Spill
	movabsq	$33, %rax
	movq	%rax, 2536(%rsp)        # 8-byte Spill
	leaq	.L.str305, %rax
	movq	%rax, 2528(%rsp)        # 8-byte Spill
	leaq	.L.str306, %rax
	movq	%rax, 2520(%rsp)        # 8-byte Spill
	movabsq	$43, %rax
	movq	%rax, 2512(%rsp)        # 8-byte Spill
	leaq	.L.str302, %rax
	movq	%rax, 2504(%rsp)        # 8-byte Spill
	leaq	.L.str303, %rax
	movq	%rax, 2496(%rsp)        # 8-byte Spill
	leaq	.L.str304, %rax
	movq	%rax, 2488(%rsp)        # 8-byte Spill
	leaq	.L.str300, %rax
	movq	%rax, 2480(%rsp)        # 8-byte Spill
	leaq	.L.str301, %rax
	movq	%rax, 2472(%rsp)        # 8-byte Spill
	leaq	.L.str298, %rax
	movq	%rax, 2464(%rsp)        # 8-byte Spill
	leaq	.L.str299, %rax
	movq	%rax, 2456(%rsp)        # 8-byte Spill
	leaq	.L.str296, %rax
	movq	%rax, 2448(%rsp)        # 8-byte Spill
	leaq	.L.str297, %rax
	movq	%rax, 2440(%rsp)        # 8-byte Spill
	movabsq	$42, %rax
	movq	%rax, 2432(%rsp)        # 8-byte Spill
	leaq	.L.str293, %rax
	movq	%rax, 2424(%rsp)        # 8-byte Spill
	leaq	.L.str294, %rax
	movq	%rax, 2416(%rsp)        # 8-byte Spill
	leaq	.L.str295, %rax
	movq	%rax, 2408(%rsp)        # 8-byte Spill
	leaq	.L.str291, %rax
	movq	%rax, 2400(%rsp)        # 8-byte Spill
	leaq	.L.str292, %rax
	movq	%rax, 2392(%rsp)        # 8-byte Spill
	leaq	.L.str289, %rax
	movq	%rax, 2384(%rsp)        # 8-byte Spill
	leaq	.L.str290, %rax
	movq	%rax, 2376(%rsp)        # 8-byte Spill
	leaq	.L.str287, %rax
	movq	%rax, 2368(%rsp)        # 8-byte Spill
	leaq	.L.str288, %rax
	movq	%rax, 2360(%rsp)        # 8-byte Spill
	movabsq	$41, %rax
	movq	%rax, 2352(%rsp)        # 8-byte Spill
	leaq	.L.str284, %rax
	movq	%rax, 2344(%rsp)        # 8-byte Spill
	leaq	.L.str285, %rax
	movq	%rax, 2336(%rsp)        # 8-byte Spill
	leaq	.L.str286, %rax
	movq	%rax, 2328(%rsp)        # 8-byte Spill
	leaq	.L.str282, %rax
	movq	%rax, 2320(%rsp)        # 8-byte Spill
	leaq	.L.str283, %rax
	movq	%rax, 2312(%rsp)        # 8-byte Spill
	leaq	.L.str280, %rax
	movq	%rax, 2304(%rsp)        # 8-byte Spill
	leaq	.L.str281, %rax
	movq	%rax, 2296(%rsp)        # 8-byte Spill
	leaq	.L.str277, %rax
	movq	%rax, 2288(%rsp)        # 8-byte Spill
	leaq	.L.str278, %rax
	movq	%rax, 2280(%rsp)        # 8-byte Spill
	leaq	.L.str279, %rax
	movq	%rax, 2272(%rsp)        # 8-byte Spill
	leaq	.L.str275, %rax
	movq	%rax, 2264(%rsp)        # 8-byte Spill
	leaq	.L.str276, %rax
	movq	%rax, 2256(%rsp)        # 8-byte Spill
	leaq	.L.str273, %rax
	movq	%rax, 2248(%rsp)        # 8-byte Spill
	leaq	.L.str274, %rax
	movq	%rax, 2240(%rsp)        # 8-byte Spill
	leaq	.L.str271, %rax
	movq	%rax, 2232(%rsp)        # 8-byte Spill
	leaq	.L.str272, %rax
	movq	%rax, 2224(%rsp)        # 8-byte Spill
	leaq	.L.str268, %rax
	movq	%rax, 2216(%rsp)        # 8-byte Spill
	leaq	.L.str269, %rax
	movq	%rax, 2208(%rsp)        # 8-byte Spill
	leaq	.L.str270, %rax
	movq	%rax, 2200(%rsp)        # 8-byte Spill
	leaq	.L.str266, %rax
	movq	%rax, 2192(%rsp)        # 8-byte Spill
	leaq	.L.str267, %rax
	movq	%rax, 2184(%rsp)        # 8-byte Spill
	leaq	.L.str264, %rax
	movq	%rax, 2176(%rsp)        # 8-byte Spill
	leaq	.L.str265, %rax
	movq	%rax, 2168(%rsp)        # 8-byte Spill
	leaq	.L.str261, %rax
	movq	%rax, 2160(%rsp)        # 8-byte Spill
	leaq	.L.str262, %rax
	movq	%rax, 2152(%rsp)        # 8-byte Spill
	leaq	.L.str263, %rax
	movq	%rax, 2144(%rsp)        # 8-byte Spill
	leaq	.L.str259, %rax
	movq	%rax, 2136(%rsp)        # 8-byte Spill
	leaq	.L.str260, %rax
	movq	%rax, 2128(%rsp)        # 8-byte Spill
	leaq	.L.str257, %rax
	movq	%rax, 2120(%rsp)        # 8-byte Spill
	leaq	.L.str258, %rax
	movq	%rax, 2112(%rsp)        # 8-byte Spill
	leaq	.L.str255, %rax
	movq	%rax, 2104(%rsp)        # 8-byte Spill
	leaq	.L.str256, %rax
	movq	%rax, 2096(%rsp)        # 8-byte Spill
	movabsq	$39, %rax
	movq	%rax, 2088(%rsp)        # 8-byte Spill
	leaq	.L.str252, %rax
	movq	%rax, 2080(%rsp)        # 8-byte Spill
	leaq	.L.str253, %rax
	movq	%rax, 2072(%rsp)        # 8-byte Spill
	leaq	.L.str254, %rax
	movq	%rax, 2064(%rsp)        # 8-byte Spill
	leaq	.L.str250, %rax
	movq	%rax, 2056(%rsp)        # 8-byte Spill
	leaq	.L.str251, %rax
	movq	%rax, 2048(%rsp)        # 8-byte Spill
	leaq	.L.str248, %rax
	movq	%rax, 2040(%rsp)        # 8-byte Spill
	leaq	.L.str249, %rax
	movq	%rax, 2032(%rsp)        # 8-byte Spill
	leaq	.L.str246, %rax
	movq	%rax, 2024(%rsp)        # 8-byte Spill
	leaq	.L.str247, %rax
	movq	%rax, 2016(%rsp)        # 8-byte Spill
	movabsq	$35, %rax
	movq	%rax, 2008(%rsp)        # 8-byte Spill
	leaq	.L.str243, %rax
	movq	%rax, 2000(%rsp)        # 8-byte Spill
	leaq	.L.str244, %rax
	movq	%rax, 1992(%rsp)        # 8-byte Spill
	leaq	.L.str245, %rax
	movq	%rax, 1984(%rsp)        # 8-byte Spill
	leaq	.L.str241, %rax
	movq	%rax, 1976(%rsp)        # 8-byte Spill
	leaq	.L.str242, %rax
	movq	%rax, 1968(%rsp)        # 8-byte Spill
	leaq	.L.str239, %rax
	movq	%rax, 1960(%rsp)        # 8-byte Spill
	leaq	.L.str240, %rax
	movq	%rax, 1952(%rsp)        # 8-byte Spill
	leaq	.L.str237, %rax
	movq	%rax, 1944(%rsp)        # 8-byte Spill
	leaq	.L.str238, %rax
	movq	%rax, 1936(%rsp)        # 8-byte Spill
	leaq	.L.str234, %rax
	movq	%rax, 1928(%rsp)        # 8-byte Spill
	leaq	.L.str235, %rax
	movq	%rax, 1920(%rsp)        # 8-byte Spill
	leaq	.L.str236, %rax
	movq	%rax, 1912(%rsp)        # 8-byte Spill
	leaq	.L.str232, %rax
	movq	%rax, 1904(%rsp)        # 8-byte Spill
	leaq	.L.str233, %rax
	movq	%rax, 1896(%rsp)        # 8-byte Spill
	leaq	.L.str230, %rax
	movq	%rax, 1888(%rsp)        # 8-byte Spill
	leaq	.L.str231, %rax
	movq	%rax, 1880(%rsp)        # 8-byte Spill
	leaq	.L.str227, %rax
	movq	%rax, 1872(%rsp)        # 8-byte Spill
	leaq	.L.str228, %rax
	movq	%rax, 1864(%rsp)        # 8-byte Spill
	leaq	.L.str229, %rax
	movq	%rax, 1856(%rsp)        # 8-byte Spill
	leaq	.L.str225, %rax
	movq	%rax, 1848(%rsp)        # 8-byte Spill
	leaq	.L.str226, %rax
	movq	%rax, 1840(%rsp)        # 8-byte Spill
	leaq	.L.str223, %rax
	movq	%rax, 1832(%rsp)        # 8-byte Spill
	leaq	.L.str224, %rax
	movq	%rax, 1824(%rsp)        # 8-byte Spill
	leaq	.L.str221, %rax
	movq	%rax, 1816(%rsp)        # 8-byte Spill
	leaq	.L.str222, %rax
	movq	%rax, 1808(%rsp)        # 8-byte Spill
	leaq	.L.str218, %rax
	movq	%rax, 1800(%rsp)        # 8-byte Spill
	leaq	.L.str219, %rax
	movq	%rax, 1792(%rsp)        # 8-byte Spill
	leaq	.L.str220, %rax
	movq	%rax, 1784(%rsp)        # 8-byte Spill
	leaq	.L.str216, %rax
	movq	%rax, 1776(%rsp)        # 8-byte Spill
	leaq	.L.str217, %rax
	movq	%rax, 1768(%rsp)        # 8-byte Spill
	leaq	.L.str214, %rax
	movq	%rax, 1760(%rsp)        # 8-byte Spill
	leaq	.L.str215, %rax
	movq	%rax, 1752(%rsp)        # 8-byte Spill
	leaq	.L.str211, %rax
	movq	%rax, 1744(%rsp)        # 8-byte Spill
	leaq	.L.str212, %rax
	movq	%rax, 1736(%rsp)        # 8-byte Spill
	leaq	.L.str213, %rax
	movq	%rax, 1728(%rsp)        # 8-byte Spill
	leaq	.L.str209, %rax
	movq	%rax, 1720(%rsp)        # 8-byte Spill
	leaq	.L.str210, %rax
	movq	%rax, 1712(%rsp)        # 8-byte Spill
	leaq	.L.str207, %rax
	movq	%rax, 1704(%rsp)        # 8-byte Spill
	leaq	.L.str208, %rax
	movq	%rax, 1696(%rsp)        # 8-byte Spill
	leaq	.L.str205, %rax
	movq	%rax, 1688(%rsp)        # 8-byte Spill
	leaq	.L.str206, %rax
	movq	%rax, 1680(%rsp)        # 8-byte Spill
	movabsq	$31, %rax
	movq	%rax, 1672(%rsp)        # 8-byte Spill
	leaq	.L.str202, %rax
	movq	%rax, 1664(%rsp)        # 8-byte Spill
	leaq	.L.str203, %rax
	movq	%rax, 1656(%rsp)        # 8-byte Spill
	leaq	.L.str204, %rax
	movq	%rax, 1648(%rsp)        # 8-byte Spill
	leaq	.L.str200, %rax
	movq	%rax, 1640(%rsp)        # 8-byte Spill
	leaq	.L.str201, %rax
	movq	%rax, 1632(%rsp)        # 8-byte Spill
	leaq	.L.str198, %rax
	movq	%rax, 1624(%rsp)        # 8-byte Spill
	leaq	.L.str199, %rax
	movq	%rax, 1616(%rsp)        # 8-byte Spill
	leaq	.L.str196, %rax
	movq	%rax, 1608(%rsp)        # 8-byte Spill
	leaq	.L.str197, %rax
	movq	%rax, 1600(%rsp)        # 8-byte Spill
	leaq	.L.str193, %rax
	movq	%rax, 1592(%rsp)        # 8-byte Spill
	leaq	.L.str194, %rax
	movq	%rax, 1584(%rsp)        # 8-byte Spill
	leaq	.L.str195, %rax
	movq	%rax, 1576(%rsp)        # 8-byte Spill
	leaq	.L.str191, %rax
	movq	%rax, 1568(%rsp)        # 8-byte Spill
	leaq	.L.str192, %rax
	movq	%rax, 1560(%rsp)        # 8-byte Spill
	leaq	.L.str189, %rax
	movq	%rax, 1552(%rsp)        # 8-byte Spill
	leaq	.L.str190, %rax
	movq	%rax, 1544(%rsp)        # 8-byte Spill
	leaq	.L.str187, %rax
	movq	%rax, 1536(%rsp)        # 8-byte Spill
	leaq	.L.str188, %rax
	movq	%rax, 1528(%rsp)        # 8-byte Spill
	leaq	.L.str184, %rax
	movq	%rax, 1520(%rsp)        # 8-byte Spill
	leaq	.L.str185, %rax
	movq	%rax, 1512(%rsp)        # 8-byte Spill
	leaq	.L.str186, %rax
	movq	%rax, 1504(%rsp)        # 8-byte Spill
	leaq	.L.str182, %rax
	movq	%rax, 1496(%rsp)        # 8-byte Spill
	leaq	.L.str183, %rax
	movq	%rax, 1488(%rsp)        # 8-byte Spill
	leaq	.L.str180, %rax
	movq	%rax, 1480(%rsp)        # 8-byte Spill
	leaq	.L.str181, %rax
	movq	%rax, 1472(%rsp)        # 8-byte Spill
	leaq	.L.str177, %rax
	movq	%rax, 1464(%rsp)        # 8-byte Spill
	leaq	.L.str178, %rax
	movq	%rax, 1456(%rsp)        # 8-byte Spill
	leaq	.L.str179, %rax
	movq	%rax, 1448(%rsp)        # 8-byte Spill
	leaq	.L.str175, %rax
	movq	%rax, 1440(%rsp)        # 8-byte Spill
	leaq	.L.str176, %rax
	movq	%rax, 1432(%rsp)        # 8-byte Spill
	leaq	.L.str173, %rax
	movq	%rax, 1424(%rsp)        # 8-byte Spill
	leaq	.L.str174, %rax
	movq	%rax, 1416(%rsp)        # 8-byte Spill
	leaq	.L.str171, %rax
	movq	%rax, 1408(%rsp)        # 8-byte Spill
	leaq	.L.str172, %rax
	movq	%rax, 1400(%rsp)        # 8-byte Spill
	leaq	.L.str168, %rax
	movq	%rax, 1392(%rsp)        # 8-byte Spill
	leaq	.L.str169, %rax
	movq	%rax, 1384(%rsp)        # 8-byte Spill
	leaq	.L.str170, %rax
	movq	%rax, 1376(%rsp)        # 8-byte Spill
	leaq	.L.str166, %rax
	movq	%rax, 1368(%rsp)        # 8-byte Spill
	leaq	.L.str167, %rax
	movq	%rax, 1360(%rsp)        # 8-byte Spill
	leaq	.L.str164, %rax
	movq	%rax, 1352(%rsp)        # 8-byte Spill
	leaq	.L.str165, %rax
	movq	%rax, 1344(%rsp)        # 8-byte Spill
	leaq	.L.str161, %rax
	movq	%rax, 1336(%rsp)        # 8-byte Spill
	leaq	.L.str162, %rax
	movq	%rax, 1328(%rsp)        # 8-byte Spill
	leaq	.L.str163, %rax
	movq	%rax, 1320(%rsp)        # 8-byte Spill
	leaq	.L.str159, %rax
	movq	%rax, 1312(%rsp)        # 8-byte Spill
	leaq	.L.str160, %rax
	movq	%rax, 1304(%rsp)        # 8-byte Spill
	leaq	.L.str157, %rax
	movq	%rax, 1296(%rsp)        # 8-byte Spill
	leaq	.L.str158, %rax
	movq	%rax, 1288(%rsp)        # 8-byte Spill
	leaq	.L.str155, %rax
	movq	%rax, 1280(%rsp)        # 8-byte Spill
	leaq	.L.str156, %rax
	movq	%rax, 1272(%rsp)        # 8-byte Spill
	movabsq	$26, %rax
	movq	%rax, 1264(%rsp)        # 8-byte Spill
	leaq	.L.str152, %rax
	movq	%rax, 1256(%rsp)        # 8-byte Spill
	leaq	.L.str153, %rax
	movq	%rax, 1248(%rsp)        # 8-byte Spill
	leaq	.L.str154, %rax
	movq	%rax, 1240(%rsp)        # 8-byte Spill
	leaq	.L.str150, %rax
	movq	%rax, 1232(%rsp)        # 8-byte Spill
	leaq	.L.str151, %rax
	movq	%rax, 1224(%rsp)        # 8-byte Spill
	leaq	.L.str148, %rax
	movq	%rax, 1216(%rsp)        # 8-byte Spill
	leaq	.L.str149, %rax
	movq	%rax, 1208(%rsp)        # 8-byte Spill
	leaq	.L.str146, %rax
	movq	%rax, 1200(%rsp)        # 8-byte Spill
	leaq	.L.str147, %rax
	movq	%rax, 1192(%rsp)        # 8-byte Spill
	movabsq	$24, %rax
	movq	%rax, 1184(%rsp)        # 8-byte Spill
	leaq	.L.str143, %rax
	movq	%rax, 1176(%rsp)        # 8-byte Spill
	leaq	.L.str144, %rax
	movq	%rax, 1168(%rsp)        # 8-byte Spill
	leaq	.L.str145, %rax
	movq	%rax, 1160(%rsp)        # 8-byte Spill
	leaq	.L.str141, %rax
	movq	%rax, 1152(%rsp)        # 8-byte Spill
	leaq	.L.str142, %rax
	movq	%rax, 1144(%rsp)        # 8-byte Spill
	leaq	.L.str139, %rax
	movq	%rax, 1136(%rsp)        # 8-byte Spill
	leaq	.L.str140, %rax
	movq	%rax, 1128(%rsp)        # 8-byte Spill
	leaq	.L.str136, %rax
	movq	%rax, 1120(%rsp)        # 8-byte Spill
	leaq	.L.str137, %rax
	movq	%rax, 1112(%rsp)        # 8-byte Spill
	leaq	.L.str138, %rax
	movq	%rax, 1104(%rsp)        # 8-byte Spill
	leaq	.L.str134, %rax
	movq	%rax, 1096(%rsp)        # 8-byte Spill
	leaq	.L.str135, %rax
	movq	%rax, 1088(%rsp)        # 8-byte Spill
	leaq	.L.str132, %rax
	movq	%rax, 1080(%rsp)        # 8-byte Spill
	leaq	.L.str133, %rax
	movq	%rax, 1072(%rsp)        # 8-byte Spill
	leaq	.L.str130, %rax
	movq	%rax, 1064(%rsp)        # 8-byte Spill
	leaq	.L.str131, %rax
	movq	%rax, 1056(%rsp)        # 8-byte Spill
	leaq	.L.str127, %rax
	movq	%rax, 1048(%rsp)        # 8-byte Spill
	leaq	.L.str128, %rax
	movq	%rax, 1040(%rsp)        # 8-byte Spill
	leaq	.L.str129, %rax
	movq	%rax, 1032(%rsp)        # 8-byte Spill
	leaq	.L.str125, %rax
	movq	%rax, 1024(%rsp)        # 8-byte Spill
	leaq	.L.str126, %rax
	movq	%rax, 1016(%rsp)        # 8-byte Spill
	leaq	.L.str123, %rax
	movq	%rax, 1008(%rsp)        # 8-byte Spill
	leaq	.L.str124, %rax
	movq	%rax, 1000(%rsp)        # 8-byte Spill
	leaq	.L.str120, %rax
	movq	%rax, 992(%rsp)         # 8-byte Spill
	leaq	.L.str121, %rax
	movq	%rax, 984(%rsp)         # 8-byte Spill
	leaq	.L.str122, %rax
	movq	%rax, 976(%rsp)         # 8-byte Spill
	leaq	.L.str118, %rax
	movq	%rax, 968(%rsp)         # 8-byte Spill
	leaq	.L.str119, %rax
	movq	%rax, 960(%rsp)         # 8-byte Spill
	leaq	.L.str116, %rax
	movq	%rax, 952(%rsp)         # 8-byte Spill
	leaq	.L.str117, %rax
	movq	%rax, 944(%rsp)         # 8-byte Spill
	leaq	.L.str114, %rax
	movq	%rax, 936(%rsp)         # 8-byte Spill
	leaq	.L.str115, %rax
	movq	%rax, 928(%rsp)         # 8-byte Spill
	movabsq	$21, %rax
	movq	%rax, 920(%rsp)         # 8-byte Spill
	leaq	.L.str111, %rax
	movq	%rax, 912(%rsp)         # 8-byte Spill
	leaq	.L.str112, %rax
	movq	%rax, 904(%rsp)         # 8-byte Spill
	leaq	.L.str113, %rax
	movq	%rax, 896(%rsp)         # 8-byte Spill
	leaq	.L.str109, %rax
	movq	%rax, 888(%rsp)         # 8-byte Spill
	leaq	.L.str110, %rax
	movq	%rax, 880(%rsp)         # 8-byte Spill
	leaq	.L.str107, %rax
	movq	%rax, 872(%rsp)         # 8-byte Spill
	leaq	.L.str108, %rax
	movq	%rax, 864(%rsp)         # 8-byte Spill
	leaq	.L.str105, %rax
	movq	%rax, 856(%rsp)         # 8-byte Spill
	leaq	.L.str106, %rax
	movq	%rax, 848(%rsp)         # 8-byte Spill
	movabsq	$-1, %rax
	movq	%rax, 840(%rsp)         # 8-byte Spill
	leaq	.L.str102, %rax
	movq	%rax, 832(%rsp)         # 8-byte Spill
	leaq	.L.str103, %rax
	movq	%rax, 824(%rsp)         # 8-byte Spill
	leaq	.L.str104, %rax
	.loc	1 16 0                  # stencil.c:16:0
.Ltmp28:
	movq	%rax, 816(%rsp)         # 8-byte Spill
	movq	840(%rsp), %rax         # 8-byte Reload
	movq	%rdi, 808(%rsp)         # 8-byte Spill
	movq	%rax, %rdi
	movq	832(%rsp), %rax         # 8-byte Reload
	movl	%esi, 804(%rsp)         # 4-byte Spill
	movq	%rax, %rsi
	movq	824(%rsp), %rax         # 8-byte Reload
	movq	%rdx, 792(%rsp)         # 8-byte Spill
	movq	%rax, %rdx
	movq	816(%rsp), %rax         # 8-byte Reload
	movq	%rcx, 784(%rsp)         # 8-byte Spill
	movq	%rax, %rcx
	movq	2936(%rsp), %rax        # 8-byte Reload
	movq	%r8, 776(%rsp)          # 8-byte Spill
	movq	%rax, %r8
	movl	804(%rsp), %eax         # 4-byte Reload
	movq	%r9, 768(%rsp)          # 8-byte Spill
	movl	%eax, %r9d
	movl	$1, (%rsp)
	movq	%r15, 760(%rsp)         # 8-byte Spill
	movq	%r14, 752(%rsp)         # 8-byte Spill
	movq	%r12, 744(%rsp)         # 8-byte Spill
	movq	%r13, 736(%rsp)         # 8-byte Spill
	movq	%rbp, 728(%rsp)         # 8-byte Spill
	movq	%rbx, 720(%rsp)         # 8-byte Spill
	movq	%r10, 712(%rsp)         # 8-byte Spill
	movq	%r11, 704(%rsp)         # 8-byte Spill
	callq	trace_logger_log0
	movq	808(%rsp), %rdi         # 8-byte Reload
	movq	4944(%rsp), %rsi        # 8-byte Reload
	movq	792(%rsp), %rdx         # 8-byte Reload
	movq	784(%rsp), %rcx         # 8-byte Reload
	movq	856(%rsp), %r8          # 8-byte Reload
	movq	784(%rsp), %r9          # 8-byte Reload
	movq	848(%rsp), %r10         # 8-byte Reload
	movq	%r10, (%rsp)
	callq	trace_logger_log_int
	movq	784(%rsp), %rdi         # 8-byte Reload
	movq	4944(%rsp), %rsi        # 8-byte Reload
	movq	792(%rsp), %rdx         # 8-byte Reload
	movq	792(%rsp), %rcx         # 8-byte Reload
	movq	872(%rsp), %r8          # 8-byte Reload
	movq	784(%rsp), %r9          # 8-byte Reload
	movq	864(%rsp), %r10         # 8-byte Reload
	movq	%r10, (%rsp)
	callq	trace_logger_log_int
	movq	4968(%rsp), %rdi        # 8-byte Reload
	movq	4944(%rsp), %rsi        # 8-byte Reload
	movq	4976(%rsp), %rdx        # 8-byte Reload
	movq	784(%rsp), %rcx         # 8-byte Reload
	movq	888(%rsp), %r8          # 8-byte Reload
	movq	792(%rsp), %r9          # 8-byte Reload
	movq	880(%rsp), %r10         # 8-byte Reload
	movq	%r10, (%rsp)
	callq	trace_logger_log_int
.Ltmp29:
	#DEBUG_VALUE: stencil:Si <- 0
	#DEBUG_VALUE: stencil:SI <- 0
	#DEBUG_VALUE: stencil:tmp <- 0
	#DEBUG_VALUE: stencil:fidx <- 0
	.loc	1 21 0                  # stencil.c:21:0
	movq	920(%rsp), %rdi         # 8-byte Reload
	movq	912(%rsp), %rsi         # 8-byte Reload
	movq	904(%rsp), %rdx         # 8-byte Reload
	movq	896(%rsp), %rcx         # 8-byte Reload
	movq	4792(%rsp), %r8         # 8-byte Reload
	movl	804(%rsp), %r9d         # 4-byte Reload
	movl	$1, (%rsp)
	callq	trace_logger_log0
	movq	808(%rsp), %rdi         # 8-byte Reload
	movq	4944(%rsp), %rsi        # 8-byte Reload
	movq	5000(%rsp), %rdx        # 8-byte Reload
	movq	784(%rsp), %rcx         # 8-byte Reload
	movq	936(%rsp), %r8          # 8-byte Reload
	movq	792(%rsp), %r9          # 8-byte Reload
	movq	928(%rsp), %r10         # 8-byte Reload
	movq	%r10, (%rsp)
	callq	trace_logger_log_int
	movq	784(%rsp), %rdi         # 8-byte Reload
	movq	4944(%rsp), %rsi        # 8-byte Reload
	movq	4976(%rsp), %rdx        # 8-byte Reload
	movq	784(%rsp), %rcx         # 8-byte Reload
	movq	952(%rsp), %r8          # 8-byte Reload
	movq	792(%rsp), %r9          # 8-byte Reload
	movq	944(%rsp), %r10         # 8-byte Reload
	movq	%r10, (%rsp)
	callq	trace_logger_log_int
	movq	4976(%rsp), %rcx        # 8-byte Reload
	movq	5000(%rsp), %rdx        # 8-byte Reload
	addq	%rdx, %rcx
	.loc	1 24 0                  # stencil.c:24:0
	movq	4968(%rsp), %rdi        # 8-byte Reload
	movq	4944(%rsp), %rsi        # 8-byte Reload
	movq	%rcx, %rdx
	movq	784(%rsp), %r8          # 8-byte Reload
	movq	%rcx, 696(%rsp)         # 8-byte Spill
	movq	%r8, %rcx
	movq	968(%rsp), %r8          # 8-byte Reload
	movq	792(%rsp), %r9          # 8-byte Reload
	movq	960(%rsp), %r10         # 8-byte Reload
	movq	%r10, (%rsp)
	callq	trace_logger_log_int
	movq	1184(%rsp), %rdi        # 8-byte Reload
	movq	992(%rsp), %rsi         # 8-byte Reload
	movq	984(%rsp), %rdx         # 8-byte Reload
	movq	976(%rsp), %rcx         # 8-byte Reload
	movq	4400(%rsp), %r8         # 8-byte Reload
	movl	804(%rsp), %r9d         # 4-byte Reload
	movl	$1, (%rsp)
	callq	trace_logger_log0
	movq	784(%rsp), %rdi         # 8-byte Reload
	movq	4944(%rsp), %rsi        # 8-byte Reload
	movq	5448(%rsp), %rdx        # 8-byte Reload
	movq	784(%rsp), %rcx         # 8-byte Reload
	movq	1008(%rsp), %r8         # 8-byte Reload
	movq	792(%rsp), %r9          # 8-byte Reload
	movq	1000(%rsp), %r10        # 8-byte Reload
	movq	%r10, (%rsp)
	callq	trace_logger_log_int
	movq	5448(%rsp), %rcx        # 8-byte Reload
	movl	(%rcx), %eax
	movl	%eax, %esi
	movl	%esi, %edx
	movq	4968(%rsp), %rdi        # 8-byte Reload
	movq	4784(%rsp), %rsi        # 8-byte Reload
	movq	784(%rsp), %rcx         # 8-byte Reload
	movq	1024(%rsp), %r8         # 8-byte Reload
	movq	792(%rsp), %r9          # 8-byte Reload
	movq	1016(%rsp), %r10        # 8-byte Reload
	movq	%r10, (%rsp)
	movl	%eax, 692(%rsp)         # 4-byte Spill
	callq	trace_logger_log_int
	movq	1184(%rsp), %rdi        # 8-byte Reload
	movq	1048(%rsp), %rsi        # 8-byte Reload
	movq	1040(%rsp), %rdx        # 8-byte Reload
	movq	1032(%rsp), %rcx        # 8-byte Reload
	movq	4632(%rsp), %r8         # 8-byte Reload
	movl	804(%rsp), %r9d         # 4-byte Reload
	movl	$1, (%rsp)
	callq	trace_logger_log0
	movq	808(%rsp), %rdi         # 8-byte Reload
	movq	4944(%rsp), %rsi        # 8-byte Reload
	movq	696(%rsp), %rdx         # 8-byte Reload
	movq	784(%rsp), %rcx         # 8-byte Reload
	movq	1064(%rsp), %r8         # 8-byte Reload
	movq	792(%rsp), %r9          # 8-byte Reload
	movq	1056(%rsp), %r10        # 8-byte Reload
	movq	%r10, (%rsp)
	callq	trace_logger_log_int
	movq	784(%rsp), %rdi         # 8-byte Reload
	movq	4944(%rsp), %rsi        # 8-byte Reload
	movq	5464(%rsp), %rdx        # 8-byte Reload
	movq	784(%rsp), %rcx         # 8-byte Reload
	movq	1080(%rsp), %r8         # 8-byte Reload
	movq	792(%rsp), %r9          # 8-byte Reload
	movq	1072(%rsp), %r10        # 8-byte Reload
	movq	%r10, (%rsp)
	callq	trace_logger_log_int
	movq	696(%rsp), %rcx         # 8-byte Reload
	shlq	$2, %rcx
	movq	5464(%rsp), %rdx        # 8-byte Reload
	addq	%rcx, %rdx
	movq	4968(%rsp), %rdi        # 8-byte Reload
	movq	4944(%rsp), %rsi        # 8-byte Reload
	movq	%rdx, 680(%rsp)         # 8-byte Spill
	movq	784(%rsp), %rcx         # 8-byte Reload
	movq	1096(%rsp), %r8         # 8-byte Reload
	movq	792(%rsp), %r9          # 8-byte Reload
	movq	1088(%rsp), %r10        # 8-byte Reload
	movq	%r10, (%rsp)
	callq	trace_logger_log_int
	movq	1184(%rsp), %rdi        # 8-byte Reload
	movq	1120(%rsp), %rsi        # 8-byte Reload
	movq	1112(%rsp), %rdx        # 8-byte Reload
	movq	1104(%rsp), %rcx        # 8-byte Reload
	movq	4400(%rsp), %r8         # 8-byte Reload
	movl	804(%rsp), %r9d         # 4-byte Reload
	movl	$1, (%rsp)
	callq	trace_logger_log0
	movq	784(%rsp), %rdi         # 8-byte Reload
	movq	4944(%rsp), %rsi        # 8-byte Reload
	movq	680(%rsp), %rdx         # 8-byte Reload
	movq	784(%rsp), %rcx         # 8-byte Reload
	movq	1136(%rsp), %r8         # 8-byte Reload
	movq	792(%rsp), %r9          # 8-byte Reload
	movq	1128(%rsp), %r10        # 8-byte Reload
	movq	%r10, (%rsp)
	callq	trace_logger_log_int
	movq	5464(%rsp), %rcx        # 8-byte Reload
	movq	696(%rsp), %rdx         # 8-byte Reload
	movl	(%rcx,%rdx,4), %eax
	movl	%eax, %esi
	movl	%esi, %edx
	movq	4968(%rsp), %rdi        # 8-byte Reload
	movq	4784(%rsp), %rsi        # 8-byte Reload
	movq	784(%rsp), %rcx         # 8-byte Reload
	movq	1152(%rsp), %r8         # 8-byte Reload
	movq	792(%rsp), %r9          # 8-byte Reload
	movq	1144(%rsp), %r10        # 8-byte Reload
	movq	%r10, (%rsp)
	movl	%eax, 676(%rsp)         # 4-byte Spill
	callq	trace_logger_log_int
	movq	1184(%rsp), %rdi        # 8-byte Reload
	movq	1176(%rsp), %rsi        # 8-byte Reload
	movq	1168(%rsp), %rdx        # 8-byte Reload
	movq	1160(%rsp), %rcx        # 8-byte Reload
	movq	4464(%rsp), %r8         # 8-byte Reload
	movl	804(%rsp), %r9d         # 4-byte Reload
	movl	$1, (%rsp)
	callq	trace_logger_log0
	movl	692(%rsp), %eax         # 4-byte Reload
	movl	%eax, %r9d
	movl	%r9d, %edx
	movq	808(%rsp), %rdi         # 8-byte Reload
	movq	4784(%rsp), %rsi        # 8-byte Reload
	movq	784(%rsp), %rcx         # 8-byte Reload
	movq	1200(%rsp), %r8         # 8-byte Reload
	movq	792(%rsp), %r9          # 8-byte Reload
	movq	1192(%rsp), %r10        # 8-byte Reload
	movq	%r10, (%rsp)
	callq	trace_logger_log_int
	movl	676(%rsp), %eax         # 4-byte Reload
	movl	%eax, %eax
	movl	%eax, %edx
	movq	784(%rsp), %rdi         # 8-byte Reload
	movq	4784(%rsp), %rsi        # 8-byte Reload
	movq	784(%rsp), %rcx         # 8-byte Reload
	movq	1216(%rsp), %r8         # 8-byte Reload
	movq	792(%rsp), %r9          # 8-byte Reload
	movq	1208(%rsp), %r10        # 8-byte Reload
	movq	%r10, (%rsp)
	callq	trace_logger_log_int
	movl	676(%rsp), %eax         # 4-byte Reload
	movl	692(%rsp), %esi         # 4-byte Reload
	imull	%esi, %eax
	movl	%eax, %esi
	movl	%esi, %edx
	movq	4968(%rsp), %rdi        # 8-byte Reload
	movq	4784(%rsp), %rsi        # 8-byte Reload
	movq	784(%rsp), %rcx         # 8-byte Reload
	movq	1232(%rsp), %r8         # 8-byte Reload
	movq	792(%rsp), %r9          # 8-byte Reload
	movq	1224(%rsp), %r10        # 8-byte Reload
	movq	%r10, (%rsp)
	movl	%eax, 672(%rsp)         # 4-byte Spill
	callq	trace_logger_log_int
.Ltmp30:
	#DEBUG_VALUE: stencil:Si <- [RSP+672]
	#DEBUG_VALUE: stencil:tmp <- [RSP+672]
	.loc	1 26 0                  # stencil.c:26:0
	movq	1264(%rsp), %rdi        # 8-byte Reload
	movq	1256(%rsp), %rsi        # 8-byte Reload
	movq	1248(%rsp), %rdx        # 8-byte Reload
	movq	1240(%rsp), %rcx        # 8-byte Reload
	movq	4792(%rsp), %r8         # 8-byte Reload
	movl	804(%rsp), %r9d         # 4-byte Reload
	movl	$1, (%rsp)
	callq	trace_logger_log0
	movq	808(%rsp), %rdi         # 8-byte Reload
	movq	4944(%rsp), %rsi        # 8-byte Reload
	movq	784(%rsp), %rdx         # 8-byte Reload
	movq	792(%rsp), %rcx         # 8-byte Reload
	movq	1280(%rsp), %r8         # 8-byte Reload
	movq	792(%rsp), %r9          # 8-byte Reload
	movq	1272(%rsp), %r10        # 8-byte Reload
	movq	%r10, (%rsp)
	callq	trace_logger_log_int
	movq	784(%rsp), %rdi         # 8-byte Reload
	movq	4944(%rsp), %rsi        # 8-byte Reload
	movq	696(%rsp), %rdx         # 8-byte Reload
	movq	784(%rsp), %rcx         # 8-byte Reload
	movq	1296(%rsp), %r8         # 8-byte Reload
	movq	792(%rsp), %r9          # 8-byte Reload
	movq	1288(%rsp), %r10        # 8-byte Reload
	movq	%r10, (%rsp)
	callq	trace_logger_log_int
	movq	696(%rsp), %rcx         # 8-byte Reload
	addq	$1, %rcx
	.loc	1 27 0                  # stencil.c:27:0
	movq	4968(%rsp), %rdi        # 8-byte Reload
	movq	4944(%rsp), %rsi        # 8-byte Reload
	movq	%rcx, %rdx
	movq	784(%rsp), %r8          # 8-byte Reload
	movq	%rcx, 664(%rsp)         # 8-byte Spill
	movq	%r8, %rcx
	movq	1312(%rsp), %r8         # 8-byte Reload
	movq	792(%rsp), %r9          # 8-byte Reload
	movq	1304(%rsp), %r10        # 8-byte Reload
	movq	%r10, (%rsp)
	callq	trace_logger_log_int
.Ltmp31:
	#DEBUG_VALUE: stencil:fidx <- 1
	.loc	1 29 0                  # stencil.c:29:0
	movq	4632(%rsp), %rdi        # 8-byte Reload
	movq	1336(%rsp), %rsi        # 8-byte Reload
	movq	1328(%rsp), %rdx        # 8-byte Reload
	movq	1320(%rsp), %rcx        # 8-byte Reload
	movq	4400(%rsp), %r8         # 8-byte Reload
	movl	804(%rsp), %r9d         # 4-byte Reload
	movl	$1, (%rsp)
	callq	trace_logger_log0
	movq	784(%rsp), %rdi         # 8-byte Reload
	movq	4944(%rsp), %rsi        # 8-byte Reload
	movq	5352(%rsp), %rdx        # 8-byte Reload
	movq	784(%rsp), %rcx         # 8-byte Reload
	movq	1352(%rsp), %r8         # 8-byte Reload
	movq	792(%rsp), %r9          # 8-byte Reload
	movq	1344(%rsp), %r10        # 8-byte Reload
	movq	%r10, (%rsp)
	callq	trace_logger_log_int
	movq	5352(%rsp), %rcx        # 8-byte Reload
	movl	(%rcx), %eax
	movl	%eax, %esi
	movl	%esi, %edx
	movq	4968(%rsp), %rdi        # 8-byte Reload
	movq	4784(%rsp), %rsi        # 8-byte Reload
	movq	784(%rsp), %rcx         # 8-byte Reload
	movq	1368(%rsp), %r8         # 8-byte Reload
	movq	792(%rsp), %r9          # 8-byte Reload
	movq	1360(%rsp), %r10        # 8-byte Reload
	movq	%r10, (%rsp)
	movl	%eax, 660(%rsp)         # 4-byte Spill
	callq	trace_logger_log_int
	movq	4632(%rsp), %rdi        # 8-byte Reload
	movq	1392(%rsp), %rsi        # 8-byte Reload
	movq	1384(%rsp), %rdx        # 8-byte Reload
	movq	1376(%rsp), %rcx        # 8-byte Reload
	movq	4632(%rsp), %r8         # 8-byte Reload
	movl	804(%rsp), %r9d         # 4-byte Reload
	movl	$1, (%rsp)
	callq	trace_logger_log0
	movq	808(%rsp), %rdi         # 8-byte Reload
	movq	4944(%rsp), %rsi        # 8-byte Reload
	movq	664(%rsp), %rdx         # 8-byte Reload
	movq	784(%rsp), %rcx         # 8-byte Reload
	movq	1408(%rsp), %r8         # 8-byte Reload
	movq	792(%rsp), %r9          # 8-byte Reload
	movq	1400(%rsp), %r10        # 8-byte Reload
	movq	%r10, (%rsp)
	callq	trace_logger_log_int
	movq	784(%rsp), %rdi         # 8-byte Reload
	movq	4944(%rsp), %rsi        # 8-byte Reload
	movq	5464(%rsp), %rdx        # 8-byte Reload
	movq	784(%rsp), %rcx         # 8-byte Reload
	movq	1424(%rsp), %r8         # 8-byte Reload
	movq	792(%rsp), %r9          # 8-byte Reload
	movq	1416(%rsp), %r10        # 8-byte Reload
	movq	%r10, (%rsp)
	callq	trace_logger_log_int
	movq	664(%rsp), %rcx         # 8-byte Reload
	shlq	$2, %rcx
	movq	5464(%rsp), %rdx        # 8-byte Reload
	addq	%rcx, %rdx
	movq	4968(%rsp), %rdi        # 8-byte Reload
	movq	4944(%rsp), %rsi        # 8-byte Reload
	movq	%rdx, 648(%rsp)         # 8-byte Spill
	movq	784(%rsp), %rcx         # 8-byte Reload
	movq	1440(%rsp), %r8         # 8-byte Reload
	movq	792(%rsp), %r9          # 8-byte Reload
	movq	1432(%rsp), %r10        # 8-byte Reload
	movq	%r10, (%rsp)
	callq	trace_logger_log_int
	movq	4632(%rsp), %rdi        # 8-byte Reload
	movq	1464(%rsp), %rsi        # 8-byte Reload
	movq	1456(%rsp), %rdx        # 8-byte Reload
	movq	1448(%rsp), %rcx        # 8-byte Reload
	movq	4400(%rsp), %r8         # 8-byte Reload
	movl	804(%rsp), %r9d         # 4-byte Reload
	movl	$1, (%rsp)
	callq	trace_logger_log0
	movq	784(%rsp), %rdi         # 8-byte Reload
	movq	4944(%rsp), %rsi        # 8-byte Reload
	movq	648(%rsp), %rdx         # 8-byte Reload
	movq	784(%rsp), %rcx         # 8-byte Reload
	movq	1480(%rsp), %r8         # 8-byte Reload
	movq	792(%rsp), %r9          # 8-byte Reload
	movq	1472(%rsp), %r10        # 8-byte Reload
	movq	%r10, (%rsp)
	callq	trace_logger_log_int
	movq	5464(%rsp), %rcx        # 8-byte Reload
	movq	696(%rsp), %rdx         # 8-byte Reload
	movl	4(%rcx,%rdx,4), %eax
	movl	%eax, %esi
	movl	%esi, %edx
	movq	4968(%rsp), %rdi        # 8-byte Reload
	movq	4784(%rsp), %rsi        # 8-byte Reload
	movq	784(%rsp), %rcx         # 8-byte Reload
	movq	1496(%rsp), %r8         # 8-byte Reload
	movq	792(%rsp), %r9          # 8-byte Reload
	movq	1488(%rsp), %r10        # 8-byte Reload
	movq	%r10, (%rsp)
	movl	%eax, 644(%rsp)         # 4-byte Spill
	callq	trace_logger_log_int
	movq	4632(%rsp), %rdi        # 8-byte Reload
	movq	1520(%rsp), %rsi        # 8-byte Reload
	movq	1512(%rsp), %rdx        # 8-byte Reload
	movq	1504(%rsp), %rcx        # 8-byte Reload
	movq	4464(%rsp), %r8         # 8-byte Reload
	movl	804(%rsp), %r9d         # 4-byte Reload
	movl	$1, (%rsp)
	callq	trace_logger_log0
	movl	660(%rsp), %eax         # 4-byte Reload
	movl	%eax, %r9d
	movl	%r9d, %edx
	movq	808(%rsp), %rdi         # 8-byte Reload
	movq	4784(%rsp), %rsi        # 8-byte Reload
	movq	784(%rsp), %rcx         # 8-byte Reload
	movq	1536(%rsp), %r8         # 8-byte Reload
	movq	792(%rsp), %r9          # 8-byte Reload
	movq	1528(%rsp), %r10        # 8-byte Reload
	movq	%r10, (%rsp)
	callq	trace_logger_log_int
	movl	644(%rsp), %eax         # 4-byte Reload
	movl	%eax, %eax
	movl	%eax, %edx
	movq	784(%rsp), %rdi         # 8-byte Reload
	movq	4784(%rsp), %rsi        # 8-byte Reload
	movq	784(%rsp), %rcx         # 8-byte Reload
	movq	1552(%rsp), %r8         # 8-byte Reload
	movq	792(%rsp), %r9          # 8-byte Reload
	movq	1544(%rsp), %r10        # 8-byte Reload
	movq	%r10, (%rsp)
	callq	trace_logger_log_int
	movl	644(%rsp), %eax         # 4-byte Reload
	movl	660(%rsp), %esi         # 4-byte Reload
	imull	%esi, %eax
	movl	%eax, %esi
	movl	%esi, %edx
	movq	4968(%rsp), %rdi        # 8-byte Reload
	movq	4784(%rsp), %rsi        # 8-byte Reload
	movq	784(%rsp), %rcx         # 8-byte Reload
	movq	1568(%rsp), %r8         # 8-byte Reload
	movq	792(%rsp), %r9          # 8-byte Reload
	movq	1560(%rsp), %r10        # 8-byte Reload
	movq	%r10, (%rsp)
	movl	%eax, 640(%rsp)         # 4-byte Spill
	callq	trace_logger_log_int
.Ltmp32:
	#DEBUG_VALUE: stencil:Si <- [RSP+640]
	.loc	1 30 0                  # stencil.c:30:0
	movq	4920(%rsp), %rdi        # 8-byte Reload
	movq	1592(%rsp), %rsi        # 8-byte Reload
	movq	1584(%rsp), %rdx        # 8-byte Reload
	movq	1576(%rsp), %rcx        # 8-byte Reload
	movq	4792(%rsp), %r8         # 8-byte Reload
	movl	804(%rsp), %r9d         # 4-byte Reload
	movl	$1, (%rsp)
	callq	trace_logger_log0
	movl	672(%rsp), %eax         # 4-byte Reload
	movl	%eax, %r9d
	movl	%r9d, %edx
	movq	808(%rsp), %rdi         # 8-byte Reload
	movq	4784(%rsp), %rsi        # 8-byte Reload
	movq	784(%rsp), %rcx         # 8-byte Reload
	movq	1608(%rsp), %r8         # 8-byte Reload
	movq	792(%rsp), %r9          # 8-byte Reload
	movq	1600(%rsp), %r10        # 8-byte Reload
	movq	%r10, (%rsp)
	callq	trace_logger_log_int
	movl	640(%rsp), %eax         # 4-byte Reload
	movl	%eax, %eax
	movl	%eax, %edx
	movq	784(%rsp), %rdi         # 8-byte Reload
	movq	4784(%rsp), %rsi        # 8-byte Reload
	movq	784(%rsp), %rcx         # 8-byte Reload
	movq	1624(%rsp), %r8         # 8-byte Reload
	movq	792(%rsp), %r9          # 8-byte Reload
	movq	1616(%rsp), %r10        # 8-byte Reload
	movq	%r10, (%rsp)
	callq	trace_logger_log_int
	movl	640(%rsp), %eax         # 4-byte Reload
	movl	672(%rsp), %esi         # 4-byte Reload
	addl	%esi, %eax
	movl	%eax, %esi
	movl	%esi, %edx
	movq	4968(%rsp), %rdi        # 8-byte Reload
	movq	4784(%rsp), %rsi        # 8-byte Reload
	movq	784(%rsp), %rcx         # 8-byte Reload
	movq	1640(%rsp), %r8         # 8-byte Reload
	movq	792(%rsp), %r9          # 8-byte Reload
	movq	1632(%rsp), %r10        # 8-byte Reload
	movq	%r10, (%rsp)
	movl	%eax, 636(%rsp)         # 4-byte Spill
	callq	trace_logger_log_int
.Ltmp33:
	#DEBUG_VALUE: stencil:tmp <- [RSP+636]
	.loc	1 31 0                  # stencil.c:31:0
	movq	1672(%rsp), %rdi        # 8-byte Reload
	movq	1664(%rsp), %rsi        # 8-byte Reload
	movq	1656(%rsp), %rdx        # 8-byte Reload
	movq	1648(%rsp), %rcx        # 8-byte Reload
	movq	4792(%rsp), %r8         # 8-byte Reload
	movl	804(%rsp), %r9d         # 4-byte Reload
	movl	$1, (%rsp)
	callq	trace_logger_log0
	movq	808(%rsp), %rdi         # 8-byte Reload
	movq	4944(%rsp), %rsi        # 8-byte Reload
	movq	808(%rsp), %rdx         # 8-byte Reload
	movq	792(%rsp), %rcx         # 8-byte Reload
	movq	1688(%rsp), %r8         # 8-byte Reload
	movq	792(%rsp), %r9          # 8-byte Reload
	movq	1680(%rsp), %r10        # 8-byte Reload
	movq	%r10, (%rsp)
	callq	trace_logger_log_int
	movq	784(%rsp), %rdi         # 8-byte Reload
	movq	4944(%rsp), %rsi        # 8-byte Reload
	movq	696(%rsp), %rdx         # 8-byte Reload
	movq	784(%rsp), %rcx         # 8-byte Reload
	movq	1704(%rsp), %r8         # 8-byte Reload
	movq	792(%rsp), %r9          # 8-byte Reload
	movq	1696(%rsp), %r10        # 8-byte Reload
	movq	%r10, (%rsp)
	callq	trace_logger_log_int
	movq	696(%rsp), %rcx         # 8-byte Reload
	addq	$2, %rcx
	.loc	1 32 0                  # stencil.c:32:0
	movq	4968(%rsp), %rdi        # 8-byte Reload
	movq	4944(%rsp), %rsi        # 8-byte Reload
	movq	%rcx, %rdx
	movq	784(%rsp), %r8          # 8-byte Reload
	movq	%rcx, 624(%rsp)         # 8-byte Spill
	movq	%r8, %rcx
	movq	1720(%rsp), %r8         # 8-byte Reload
	movq	792(%rsp), %r9          # 8-byte Reload
	movq	1712(%rsp), %r10        # 8-byte Reload
	movq	%r10, (%rsp)
	callq	trace_logger_log_int
.Ltmp34:
	#DEBUG_VALUE: stencil:fidx <- 2
	.loc	1 34 0                  # stencil.c:34:0
	movq	2960(%rsp), %rdi        # 8-byte Reload
	movq	1744(%rsp), %rsi        # 8-byte Reload
	movq	1736(%rsp), %rdx        # 8-byte Reload
	movq	1728(%rsp), %rcx        # 8-byte Reload
	movq	4400(%rsp), %r8         # 8-byte Reload
	movl	804(%rsp), %r9d         # 4-byte Reload
	movl	$1, (%rsp)
	callq	trace_logger_log0
	movq	784(%rsp), %rdi         # 8-byte Reload
	movq	4944(%rsp), %rsi        # 8-byte Reload
	movq	5344(%rsp), %rdx        # 8-byte Reload
	movq	784(%rsp), %rcx         # 8-byte Reload
	movq	1760(%rsp), %r8         # 8-byte Reload
	movq	792(%rsp), %r9          # 8-byte Reload
	movq	1752(%rsp), %r10        # 8-byte Reload
	movq	%r10, (%rsp)
	callq	trace_logger_log_int
	movq	5344(%rsp), %rcx        # 8-byte Reload
	movl	(%rcx), %eax
	movl	%eax, %esi
	movl	%esi, %edx
	movq	4968(%rsp), %rdi        # 8-byte Reload
	movq	4784(%rsp), %rsi        # 8-byte Reload
	movq	784(%rsp), %rcx         # 8-byte Reload
	movq	1776(%rsp), %r8         # 8-byte Reload
	movq	792(%rsp), %r9          # 8-byte Reload
	movq	1768(%rsp), %r10        # 8-byte Reload
	movq	%r10, (%rsp)
	movl	%eax, 620(%rsp)         # 4-byte Spill
	callq	trace_logger_log_int
	movq	2960(%rsp), %rdi        # 8-byte Reload
	movq	1800(%rsp), %rsi        # 8-byte Reload
	movq	1792(%rsp), %rdx        # 8-byte Reload
	movq	1784(%rsp), %rcx        # 8-byte Reload
	movq	4632(%rsp), %r8         # 8-byte Reload
	movl	804(%rsp), %r9d         # 4-byte Reload
	movl	$1, (%rsp)
	callq	trace_logger_log0
	movq	808(%rsp), %rdi         # 8-byte Reload
	movq	4944(%rsp), %rsi        # 8-byte Reload
	movq	624(%rsp), %rdx         # 8-byte Reload
	movq	784(%rsp), %rcx         # 8-byte Reload
	movq	1816(%rsp), %r8         # 8-byte Reload
	movq	792(%rsp), %r9          # 8-byte Reload
	movq	1808(%rsp), %r10        # 8-byte Reload
	movq	%r10, (%rsp)
	callq	trace_logger_log_int
	movq	784(%rsp), %rdi         # 8-byte Reload
	movq	4944(%rsp), %rsi        # 8-byte Reload
	movq	5464(%rsp), %rdx        # 8-byte Reload
	movq	784(%rsp), %rcx         # 8-byte Reload
	movq	1832(%rsp), %r8         # 8-byte Reload
	movq	792(%rsp), %r9          # 8-byte Reload
	movq	1824(%rsp), %r10        # 8-byte Reload
	movq	%r10, (%rsp)
	callq	trace_logger_log_int
	movq	624(%rsp), %rcx         # 8-byte Reload
	shlq	$2, %rcx
	movq	5464(%rsp), %rdx        # 8-byte Reload
	addq	%rcx, %rdx
	movq	4968(%rsp), %rdi        # 8-byte Reload
	movq	4944(%rsp), %rsi        # 8-byte Reload
	movq	%rdx, 608(%rsp)         # 8-byte Spill
	movq	784(%rsp), %rcx         # 8-byte Reload
	movq	1848(%rsp), %r8         # 8-byte Reload
	movq	792(%rsp), %r9          # 8-byte Reload
	movq	1840(%rsp), %r10        # 8-byte Reload
	movq	%r10, (%rsp)
	callq	trace_logger_log_int
	movq	2960(%rsp), %rdi        # 8-byte Reload
	movq	1872(%rsp), %rsi        # 8-byte Reload
	movq	1864(%rsp), %rdx        # 8-byte Reload
	movq	1856(%rsp), %rcx        # 8-byte Reload
	movq	4400(%rsp), %r8         # 8-byte Reload
	movl	804(%rsp), %r9d         # 4-byte Reload
	movl	$1, (%rsp)
	callq	trace_logger_log0
	movq	784(%rsp), %rdi         # 8-byte Reload
	movq	4944(%rsp), %rsi        # 8-byte Reload
	movq	608(%rsp), %rdx         # 8-byte Reload
	movq	784(%rsp), %rcx         # 8-byte Reload
	movq	1888(%rsp), %r8         # 8-byte Reload
	movq	792(%rsp), %r9          # 8-byte Reload
	movq	1880(%rsp), %r10        # 8-byte Reload
	movq	%r10, (%rsp)
	callq	trace_logger_log_int
	movq	5464(%rsp), %rcx        # 8-byte Reload
	movq	696(%rsp), %rdx         # 8-byte Reload
	movl	8(%rcx,%rdx,4), %eax
	movl	%eax, %esi
	movl	%esi, %edx
	movq	4968(%rsp), %rdi        # 8-byte Reload
	movq	4784(%rsp), %rsi        # 8-byte Reload
	movq	784(%rsp), %rcx         # 8-byte Reload
	movq	1904(%rsp), %r8         # 8-byte Reload
	movq	792(%rsp), %r9          # 8-byte Reload
	movq	1896(%rsp), %r10        # 8-byte Reload
	movq	%r10, (%rsp)
	movl	%eax, 604(%rsp)         # 4-byte Spill
	callq	trace_logger_log_int
	movq	2960(%rsp), %rdi        # 8-byte Reload
	movq	1928(%rsp), %rsi        # 8-byte Reload
	movq	1920(%rsp), %rdx        # 8-byte Reload
	movq	1912(%rsp), %rcx        # 8-byte Reload
	movq	4464(%rsp), %r8         # 8-byte Reload
	movl	804(%rsp), %r9d         # 4-byte Reload
	movl	$1, (%rsp)
	callq	trace_logger_log0
	movl	620(%rsp), %eax         # 4-byte Reload
	movl	%eax, %r9d
	movl	%r9d, %edx
	movq	808(%rsp), %rdi         # 8-byte Reload
	movq	4784(%rsp), %rsi        # 8-byte Reload
	movq	784(%rsp), %rcx         # 8-byte Reload
	movq	1944(%rsp), %r8         # 8-byte Reload
	movq	792(%rsp), %r9          # 8-byte Reload
	movq	1936(%rsp), %r10        # 8-byte Reload
	movq	%r10, (%rsp)
	callq	trace_logger_log_int
	movl	604(%rsp), %eax         # 4-byte Reload
	movl	%eax, %eax
	movl	%eax, %edx
	movq	784(%rsp), %rdi         # 8-byte Reload
	movq	4784(%rsp), %rsi        # 8-byte Reload
	movq	784(%rsp), %rcx         # 8-byte Reload
	movq	1960(%rsp), %r8         # 8-byte Reload
	movq	792(%rsp), %r9          # 8-byte Reload
	movq	1952(%rsp), %r10        # 8-byte Reload
	movq	%r10, (%rsp)
	callq	trace_logger_log_int
	movl	604(%rsp), %eax         # 4-byte Reload
	movl	620(%rsp), %esi         # 4-byte Reload
	imull	%esi, %eax
	movl	%eax, %esi
	movl	%esi, %edx
	movq	4968(%rsp), %rdi        # 8-byte Reload
	movq	4784(%rsp), %rsi        # 8-byte Reload
	movq	784(%rsp), %rcx         # 8-byte Reload
	movq	1976(%rsp), %r8         # 8-byte Reload
	movq	792(%rsp), %r9          # 8-byte Reload
	movq	1968(%rsp), %r10        # 8-byte Reload
	movq	%r10, (%rsp)
	movl	%eax, 600(%rsp)         # 4-byte Spill
	callq	trace_logger_log_int
.Ltmp35:
	#DEBUG_VALUE: stencil:Si <- [RSP+600]
	.loc	1 35 0                  # stencil.c:35:0
	movq	2008(%rsp), %rdi        # 8-byte Reload
	movq	2000(%rsp), %rsi        # 8-byte Reload
	movq	1992(%rsp), %rdx        # 8-byte Reload
	movq	1984(%rsp), %rcx        # 8-byte Reload
	movq	4792(%rsp), %r8         # 8-byte Reload
	movl	804(%rsp), %r9d         # 4-byte Reload
	movl	$1, (%rsp)
	callq	trace_logger_log0
	movl	600(%rsp), %eax         # 4-byte Reload
	movl	%eax, %r9d
	movl	%r9d, %edx
	movq	808(%rsp), %rdi         # 8-byte Reload
	movq	4784(%rsp), %rsi        # 8-byte Reload
	movq	784(%rsp), %rcx         # 8-byte Reload
	movq	2024(%rsp), %r8         # 8-byte Reload
	movq	792(%rsp), %r9          # 8-byte Reload
	movq	2016(%rsp), %r10        # 8-byte Reload
	movq	%r10, (%rsp)
	callq	trace_logger_log_int
	movl	636(%rsp), %eax         # 4-byte Reload
	movl	%eax, %eax
	movl	%eax, %edx
	movq	784(%rsp), %rdi         # 8-byte Reload
	movq	4784(%rsp), %rsi        # 8-byte Reload
	movq	784(%rsp), %rcx         # 8-byte Reload
	movq	2040(%rsp), %r8         # 8-byte Reload
	movq	792(%rsp), %r9          # 8-byte Reload
	movq	2032(%rsp), %r10        # 8-byte Reload
	movq	%r10, (%rsp)
	callq	trace_logger_log_int
	movl	636(%rsp), %eax         # 4-byte Reload
	movl	600(%rsp), %esi         # 4-byte Reload
	addl	%esi, %eax
	movl	%eax, %esi
	movl	%esi, %edx
	movq	4968(%rsp), %rdi        # 8-byte Reload
	movq	4784(%rsp), %rsi        # 8-byte Reload
	movq	784(%rsp), %rcx         # 8-byte Reload
	movq	2056(%rsp), %r8         # 8-byte Reload
	movq	792(%rsp), %r9          # 8-byte Reload
	movq	2048(%rsp), %r10        # 8-byte Reload
	movq	%r10, (%rsp)
	movl	%eax, 596(%rsp)         # 4-byte Spill
	callq	trace_logger_log_int
.Ltmp36:
	#DEBUG_VALUE: stencil:tmp <- [RSP+596]
	#DEBUG_VALUE: stencil:fidx <- 3
	.loc	1 39 0                  # stencil.c:39:0
	movq	2088(%rsp), %rdi        # 8-byte Reload
	movq	2080(%rsp), %rsi        # 8-byte Reload
	movq	2072(%rsp), %rdx        # 8-byte Reload
	movq	2064(%rsp), %rcx        # 8-byte Reload
	movq	4792(%rsp), %r8         # 8-byte Reload
	movl	804(%rsp), %r9d         # 4-byte Reload
	movl	$1, (%rsp)
	callq	trace_logger_log0
	movq	808(%rsp), %rdi         # 8-byte Reload
	movq	4944(%rsp), %rsi        # 8-byte Reload
	movq	4784(%rsp), %rdx        # 8-byte Reload
	movq	792(%rsp), %rcx         # 8-byte Reload
	movq	2104(%rsp), %r8         # 8-byte Reload
	movq	792(%rsp), %r9          # 8-byte Reload
	movq	2096(%rsp), %r10        # 8-byte Reload
	movq	%r10, (%rsp)
	callq	trace_logger_log_int
	movq	784(%rsp), %rdi         # 8-byte Reload
	movq	4944(%rsp), %rsi        # 8-byte Reload
	movq	696(%rsp), %rdx         # 8-byte Reload
	movq	784(%rsp), %rcx         # 8-byte Reload
	movq	2120(%rsp), %r8         # 8-byte Reload
	movq	792(%rsp), %r9          # 8-byte Reload
	movq	2112(%rsp), %r10        # 8-byte Reload
	movq	%r10, (%rsp)
	callq	trace_logger_log_int
	movq	696(%rsp), %rcx         # 8-byte Reload
	addq	$32, %rcx
	.loc	1 41 0                  # stencil.c:41:0
	movq	4968(%rsp), %rdi        # 8-byte Reload
	movq	4944(%rsp), %rsi        # 8-byte Reload
	movq	%rcx, %rdx
	movq	784(%rsp), %r8          # 8-byte Reload
	movq	%rcx, 584(%rsp)         # 8-byte Spill
	movq	%r8, %rcx
	movq	2136(%rsp), %r8         # 8-byte Reload
	movq	792(%rsp), %r9          # 8-byte Reload
	movq	2128(%rsp), %r10        # 8-byte Reload
	movq	%r10, (%rsp)
	callq	trace_logger_log_int
	movq	2352(%rsp), %rdi        # 8-byte Reload
	movq	2160(%rsp), %rsi        # 8-byte Reload
	movq	2152(%rsp), %rdx        # 8-byte Reload
	movq	2144(%rsp), %rcx        # 8-byte Reload
	movq	4400(%rsp), %r8         # 8-byte Reload
	movl	804(%rsp), %r9d         # 4-byte Reload
	movl	$1, (%rsp)
	callq	trace_logger_log0
	movq	784(%rsp), %rdi         # 8-byte Reload
	movq	4944(%rsp), %rsi        # 8-byte Reload
	movq	5336(%rsp), %rdx        # 8-byte Reload
	movq	784(%rsp), %rcx         # 8-byte Reload
	movq	2176(%rsp), %r8         # 8-byte Reload
	movq	792(%rsp), %r9          # 8-byte Reload
	movq	2168(%rsp), %r10        # 8-byte Reload
	movq	%r10, (%rsp)
	callq	trace_logger_log_int
	movq	5336(%rsp), %rcx        # 8-byte Reload
	movl	(%rcx), %eax
	movl	%eax, %esi
	movl	%esi, %edx
	movq	4968(%rsp), %rdi        # 8-byte Reload
	movq	4784(%rsp), %rsi        # 8-byte Reload
	movq	784(%rsp), %rcx         # 8-byte Reload
	movq	2192(%rsp), %r8         # 8-byte Reload
	movq	792(%rsp), %r9          # 8-byte Reload
	movq	2184(%rsp), %r10        # 8-byte Reload
	movq	%r10, (%rsp)
	movl	%eax, 580(%rsp)         # 4-byte Spill
	callq	trace_logger_log_int
	movq	2352(%rsp), %rdi        # 8-byte Reload
	movq	2216(%rsp), %rsi        # 8-byte Reload
	movq	2208(%rsp), %rdx        # 8-byte Reload
	movq	2200(%rsp), %rcx        # 8-byte Reload
	movq	4632(%rsp), %r8         # 8-byte Reload
	movl	804(%rsp), %r9d         # 4-byte Reload
	movl	$1, (%rsp)
	callq	trace_logger_log0
	movq	808(%rsp), %rdi         # 8-byte Reload
	movq	4944(%rsp), %rsi        # 8-byte Reload
	movq	584(%rsp), %rdx         # 8-byte Reload
	movq	784(%rsp), %rcx         # 8-byte Reload
	movq	2232(%rsp), %r8         # 8-byte Reload
	movq	792(%rsp), %r9          # 8-byte Reload
	movq	2224(%rsp), %r10        # 8-byte Reload
	movq	%r10, (%rsp)
	callq	trace_logger_log_int
	movq	784(%rsp), %rdi         # 8-byte Reload
	movq	4944(%rsp), %rsi        # 8-byte Reload
	movq	5464(%rsp), %rdx        # 8-byte Reload
	movq	784(%rsp), %rcx         # 8-byte Reload
	movq	2248(%rsp), %r8         # 8-byte Reload
	movq	792(%rsp), %r9          # 8-byte Reload
	movq	2240(%rsp), %r10        # 8-byte Reload
	movq	%r10, (%rsp)
	callq	trace_logger_log_int
	movq	584(%rsp), %rcx         # 8-byte Reload
	shlq	$2, %rcx
	movq	5464(%rsp), %rdx        # 8-byte Reload
	addq	%rcx, %rdx
	movq	4968(%rsp), %rdi        # 8-byte Reload
	movq	4944(%rsp), %rsi        # 8-byte Reload
	movq	%rdx, 568(%rsp)         # 8-byte Spill
	movq	784(%rsp), %rcx         # 8-byte Reload
	movq	2264(%rsp), %r8         # 8-byte Reload
	movq	792(%rsp), %r9          # 8-byte Reload
	movq	2256(%rsp), %r10        # 8-byte Reload
	movq	%r10, (%rsp)
	callq	trace_logger_log_int
	movq	2352(%rsp), %rdi        # 8-byte Reload
	movq	2288(%rsp), %rsi        # 8-byte Reload
	movq	2280(%rsp), %rdx        # 8-byte Reload
	movq	2272(%rsp), %rcx        # 8-byte Reload
	movq	4400(%rsp), %r8         # 8-byte Reload
	movl	804(%rsp), %r9d         # 4-byte Reload
	movl	$1, (%rsp)
	callq	trace_logger_log0
	movq	784(%rsp), %rdi         # 8-byte Reload
	movq	4944(%rsp), %rsi        # 8-byte Reload
	movq	568(%rsp), %rdx         # 8-byte Reload
	movq	784(%rsp), %rcx         # 8-byte Reload
	movq	2304(%rsp), %r8         # 8-byte Reload
	movq	792(%rsp), %r9          # 8-byte Reload
	movq	2296(%rsp), %r10        # 8-byte Reload
	movq	%r10, (%rsp)
	callq	trace_logger_log_int
	movq	5464(%rsp), %rcx        # 8-byte Reload
	movq	696(%rsp), %rdx         # 8-byte Reload
	movl	128(%rcx,%rdx,4), %eax
	movl	%eax, %esi
	movl	%esi, %edx
	movq	4968(%rsp), %rdi        # 8-byte Reload
	movq	4784(%rsp), %rsi        # 8-byte Reload
	movq	784(%rsp), %rcx         # 8-byte Reload
	movq	2320(%rsp), %r8         # 8-byte Reload
	movq	792(%rsp), %r9          # 8-byte Reload
	movq	2312(%rsp), %r10        # 8-byte Reload
	movq	%r10, (%rsp)
	movl	%eax, 564(%rsp)         # 4-byte Spill
	callq	trace_logger_log_int
	movq	2352(%rsp), %rdi        # 8-byte Reload
	movq	2344(%rsp), %rsi        # 8-byte Reload
	movq	2336(%rsp), %rdx        # 8-byte Reload
	movq	2328(%rsp), %rcx        # 8-byte Reload
	movq	4464(%rsp), %r8         # 8-byte Reload
	movl	804(%rsp), %r9d         # 4-byte Reload
	movl	$1, (%rsp)
	callq	trace_logger_log0
	movl	580(%rsp), %eax         # 4-byte Reload
	movl	%eax, %r9d
	movl	%r9d, %edx
	movq	808(%rsp), %rdi         # 8-byte Reload
	movq	4784(%rsp), %rsi        # 8-byte Reload
	movq	784(%rsp), %rcx         # 8-byte Reload
	movq	2368(%rsp), %r8         # 8-byte Reload
	movq	792(%rsp), %r9          # 8-byte Reload
	movq	2360(%rsp), %r10        # 8-byte Reload
	movq	%r10, (%rsp)
	callq	trace_logger_log_int
	movl	564(%rsp), %eax         # 4-byte Reload
	movl	%eax, %eax
	movl	%eax, %edx
	movq	784(%rsp), %rdi         # 8-byte Reload
	movq	4784(%rsp), %rsi        # 8-byte Reload
	movq	784(%rsp), %rcx         # 8-byte Reload
	movq	2384(%rsp), %r8         # 8-byte Reload
	movq	792(%rsp), %r9          # 8-byte Reload
	movq	2376(%rsp), %r10        # 8-byte Reload
	movq	%r10, (%rsp)
	callq	trace_logger_log_int
	movl	564(%rsp), %eax         # 4-byte Reload
	movl	580(%rsp), %esi         # 4-byte Reload
	imull	%esi, %eax
	movl	%eax, %esi
	movl	%esi, %edx
	movq	4968(%rsp), %rdi        # 8-byte Reload
	movq	4784(%rsp), %rsi        # 8-byte Reload
	movq	784(%rsp), %rcx         # 8-byte Reload
	movq	2400(%rsp), %r8         # 8-byte Reload
	movq	792(%rsp), %r9          # 8-byte Reload
	movq	2392(%rsp), %r10        # 8-byte Reload
	movq	%r10, (%rsp)
	movl	%eax, 560(%rsp)         # 4-byte Spill
	callq	trace_logger_log_int
.Ltmp37:
	#DEBUG_VALUE: stencil:Si <- [RSP+560]
	.loc	1 42 0                  # stencil.c:42:0
	movq	2432(%rsp), %rdi        # 8-byte Reload
	movq	2424(%rsp), %rsi        # 8-byte Reload
	movq	2416(%rsp), %rdx        # 8-byte Reload
	movq	2408(%rsp), %rcx        # 8-byte Reload
	movq	4792(%rsp), %r8         # 8-byte Reload
	movl	804(%rsp), %r9d         # 4-byte Reload
	movl	$1, (%rsp)
	callq	trace_logger_log0
	movl	560(%rsp), %eax         # 4-byte Reload
	movl	%eax, %r9d
	movl	%r9d, %edx
	movq	808(%rsp), %rdi         # 8-byte Reload
	movq	4784(%rsp), %rsi        # 8-byte Reload
	movq	784(%rsp), %rcx         # 8-byte Reload
	movq	2448(%rsp), %r8         # 8-byte Reload
	movq	792(%rsp), %r9          # 8-byte Reload
	movq	2440(%rsp), %r10        # 8-byte Reload
	movq	%r10, (%rsp)
	callq	trace_logger_log_int
	movl	596(%rsp), %eax         # 4-byte Reload
	movl	%eax, %eax
	movl	%eax, %edx
	movq	784(%rsp), %rdi         # 8-byte Reload
	movq	4784(%rsp), %rsi        # 8-byte Reload
	movq	784(%rsp), %rcx         # 8-byte Reload
	movq	2464(%rsp), %r8         # 8-byte Reload
	movq	792(%rsp), %r9          # 8-byte Reload
	movq	2456(%rsp), %r10        # 8-byte Reload
	movq	%r10, (%rsp)
	callq	trace_logger_log_int
	movl	596(%rsp), %eax         # 4-byte Reload
	movl	560(%rsp), %esi         # 4-byte Reload
	addl	%esi, %eax
	movl	%eax, %esi
	movl	%esi, %edx
	movq	4968(%rsp), %rdi        # 8-byte Reload
	movq	4784(%rsp), %rsi        # 8-byte Reload
	movq	784(%rsp), %rcx         # 8-byte Reload
	movq	2480(%rsp), %r8         # 8-byte Reload
	movq	792(%rsp), %r9          # 8-byte Reload
	movq	2472(%rsp), %r10        # 8-byte Reload
	movq	%r10, (%rsp)
	movl	%eax, 556(%rsp)         # 4-byte Spill
	callq	trace_logger_log_int
.Ltmp38:
	#DEBUG_VALUE: stencil:tmp <- [RSP+556]
	.loc	1 43 0                  # stencil.c:43:0
	movq	2512(%rsp), %rdi        # 8-byte Reload
	movq	2504(%rsp), %rsi        # 8-byte Reload
	movq	2496(%rsp), %rdx        # 8-byte Reload
	movq	2488(%rsp), %rcx        # 8-byte Reload
	movq	4792(%rsp), %r8         # 8-byte Reload
	movl	804(%rsp), %r9d         # 4-byte Reload
	movl	$1, (%rsp)
	callq	trace_logger_log0
	movq	808(%rsp), %rdi         # 8-byte Reload
	movq	4944(%rsp), %rsi        # 8-byte Reload
	movq	2536(%rsp), %rdx        # 8-byte Reload
	movq	792(%rsp), %rcx         # 8-byte Reload
	movq	2528(%rsp), %r8         # 8-byte Reload
	movq	792(%rsp), %r9          # 8-byte Reload
	movq	2520(%rsp), %r10        # 8-byte Reload
	movq	%r10, (%rsp)
	callq	trace_logger_log_int
	movq	784(%rsp), %rdi         # 8-byte Reload
	movq	4944(%rsp), %rsi        # 8-byte Reload
	movq	696(%rsp), %rdx         # 8-byte Reload
	movq	784(%rsp), %rcx         # 8-byte Reload
	movq	2552(%rsp), %r8         # 8-byte Reload
	movq	792(%rsp), %r9          # 8-byte Reload
	movq	2544(%rsp), %r10        # 8-byte Reload
	movq	%r10, (%rsp)
	callq	trace_logger_log_int
	movq	696(%rsp), %rcx         # 8-byte Reload
	addq	$33, %rcx
	.loc	1 44 0                  # stencil.c:44:0
	movq	4968(%rsp), %rdi        # 8-byte Reload
	movq	4944(%rsp), %rsi        # 8-byte Reload
	movq	%rcx, %rdx
	movq	784(%rsp), %r8          # 8-byte Reload
	movq	%rcx, 544(%rsp)         # 8-byte Spill
	movq	%r8, %rcx
	movq	2568(%rsp), %r8         # 8-byte Reload
	movq	792(%rsp), %r9          # 8-byte Reload
	movq	2560(%rsp), %r10        # 8-byte Reload
	movq	%r10, (%rsp)
	callq	trace_logger_log_int
.Ltmp39:
	#DEBUG_VALUE: stencil:fidx <- 4
	.loc	1 46 0                  # stencil.c:46:0
	movq	4872(%rsp), %rdi        # 8-byte Reload
	movq	2592(%rsp), %rsi        # 8-byte Reload
	movq	2584(%rsp), %rdx        # 8-byte Reload
	movq	2576(%rsp), %rcx        # 8-byte Reload
	movq	4400(%rsp), %r8         # 8-byte Reload
	movl	804(%rsp), %r9d         # 4-byte Reload
	movl	$1, (%rsp)
	callq	trace_logger_log0
	movq	784(%rsp), %rdi         # 8-byte Reload
	movq	4944(%rsp), %rsi        # 8-byte Reload
	movq	5328(%rsp), %rdx        # 8-byte Reload
	movq	784(%rsp), %rcx         # 8-byte Reload
	movq	2608(%rsp), %r8         # 8-byte Reload
	movq	792(%rsp), %r9          # 8-byte Reload
	movq	2600(%rsp), %r10        # 8-byte Reload
	movq	%r10, (%rsp)
	callq	trace_logger_log_int
	movq	5328(%rsp), %rcx        # 8-byte Reload
	movl	(%rcx), %eax
	movl	%eax, %esi
	movl	%esi, %edx
	movq	4968(%rsp), %rdi        # 8-byte Reload
	movq	4784(%rsp), %rsi        # 8-byte Reload
	movq	784(%rsp), %rcx         # 8-byte Reload
	movq	2624(%rsp), %r8         # 8-byte Reload
	movq	792(%rsp), %r9          # 8-byte Reload
	movq	2616(%rsp), %r10        # 8-byte Reload
	movq	%r10, (%rsp)
	movl	%eax, 540(%rsp)         # 4-byte Spill
	callq	trace_logger_log_int
	movq	4872(%rsp), %rdi        # 8-byte Reload
	movq	2648(%rsp), %rsi        # 8-byte Reload
	movq	2640(%rsp), %rdx        # 8-byte Reload
	movq	2632(%rsp), %rcx        # 8-byte Reload
	movq	4632(%rsp), %r8         # 8-byte Reload
	movl	804(%rsp), %r9d         # 4-byte Reload
	movl	$1, (%rsp)
	callq	trace_logger_log0
	movq	808(%rsp), %rdi         # 8-byte Reload
	movq	4944(%rsp), %rsi        # 8-byte Reload
	movq	544(%rsp), %rdx         # 8-byte Reload
	movq	784(%rsp), %rcx         # 8-byte Reload
	movq	2664(%rsp), %r8         # 8-byte Reload
	movq	792(%rsp), %r9          # 8-byte Reload
	movq	2656(%rsp), %r10        # 8-byte Reload
	movq	%r10, (%rsp)
	callq	trace_logger_log_int
	movq	784(%rsp), %rdi         # 8-byte Reload
	movq	4944(%rsp), %rsi        # 8-byte Reload
	movq	5464(%rsp), %rdx        # 8-byte Reload
	movq	784(%rsp), %rcx         # 8-byte Reload
	movq	2680(%rsp), %r8         # 8-byte Reload
	movq	792(%rsp), %r9          # 8-byte Reload
	movq	2672(%rsp), %r10        # 8-byte Reload
	movq	%r10, (%rsp)
	callq	trace_logger_log_int
	movq	544(%rsp), %rcx         # 8-byte Reload
	shlq	$2, %rcx
	movq	5464(%rsp), %rdx        # 8-byte Reload
	addq	%rcx, %rdx
	movq	4968(%rsp), %rdi        # 8-byte Reload
	movq	4944(%rsp), %rsi        # 8-byte Reload
	movq	%rdx, 528(%rsp)         # 8-byte Spill
	movq	784(%rsp), %rcx         # 8-byte Reload
	movq	2696(%rsp), %r8         # 8-byte Reload
	movq	792(%rsp), %r9          # 8-byte Reload
	movq	2688(%rsp), %r10        # 8-byte Reload
	movq	%r10, (%rsp)
	callq	trace_logger_log_int
	movq	4872(%rsp), %rdi        # 8-byte Reload
	movq	2720(%rsp), %rsi        # 8-byte Reload
	movq	2712(%rsp), %rdx        # 8-byte Reload
	movq	2704(%rsp), %rcx        # 8-byte Reload
	movq	4400(%rsp), %r8         # 8-byte Reload
	movl	804(%rsp), %r9d         # 4-byte Reload
	movl	$1, (%rsp)
	callq	trace_logger_log0
	movq	784(%rsp), %rdi         # 8-byte Reload
	movq	4944(%rsp), %rsi        # 8-byte Reload
	movq	528(%rsp), %rdx         # 8-byte Reload
	movq	784(%rsp), %rcx         # 8-byte Reload
	movq	2736(%rsp), %r8         # 8-byte Reload
	movq	792(%rsp), %r9          # 8-byte Reload
	movq	2728(%rsp), %r10        # 8-byte Reload
	movq	%r10, (%rsp)
	callq	trace_logger_log_int
	movq	5464(%rsp), %rcx        # 8-byte Reload
	movq	696(%rsp), %rdx         # 8-byte Reload
	movl	132(%rcx,%rdx,4), %eax
	movl	%eax, %esi
	movl	%esi, %edx
	movq	4968(%rsp), %rdi        # 8-byte Reload
	movq	4784(%rsp), %rsi        # 8-byte Reload
	movq	784(%rsp), %rcx         # 8-byte Reload
	movq	2752(%rsp), %r8         # 8-byte Reload
	movq	792(%rsp), %r9          # 8-byte Reload
	movq	2744(%rsp), %r10        # 8-byte Reload
	movq	%r10, (%rsp)
	movl	%eax, 524(%rsp)         # 4-byte Spill
	callq	trace_logger_log_int
	movq	4872(%rsp), %rdi        # 8-byte Reload
	movq	2776(%rsp), %rsi        # 8-byte Reload
	movq	2768(%rsp), %rdx        # 8-byte Reload
	movq	2760(%rsp), %rcx        # 8-byte Reload
	movq	4464(%rsp), %r8         # 8-byte Reload
	movl	804(%rsp), %r9d         # 4-byte Reload
	movl	$1, (%rsp)
	callq	trace_logger_log0
	movl	540(%rsp), %eax         # 4-byte Reload
	movl	%eax, %r9d
	movl	%r9d, %edx
	movq	808(%rsp), %rdi         # 8-byte Reload
	movq	4784(%rsp), %rsi        # 8-byte Reload
	movq	784(%rsp), %rcx         # 8-byte Reload
	movq	2792(%rsp), %r8         # 8-byte Reload
	movq	792(%rsp), %r9          # 8-byte Reload
	movq	2784(%rsp), %r10        # 8-byte Reload
	movq	%r10, (%rsp)
	callq	trace_logger_log_int
	movl	524(%rsp), %eax         # 4-byte Reload
	movl	%eax, %eax
	movl	%eax, %edx
	movq	784(%rsp), %rdi         # 8-byte Reload
	movq	4784(%rsp), %rsi        # 8-byte Reload
	movq	784(%rsp), %rcx         # 8-byte Reload
	movq	2808(%rsp), %r8         # 8-byte Reload
	movq	792(%rsp), %r9          # 8-byte Reload
	movq	2800(%rsp), %r10        # 8-byte Reload
	movq	%r10, (%rsp)
	callq	trace_logger_log_int
	movl	524(%rsp), %eax         # 4-byte Reload
	movl	540(%rsp), %esi         # 4-byte Reload
	imull	%esi, %eax
	movl	%eax, %esi
	movl	%esi, %edx
	movq	4968(%rsp), %rdi        # 8-byte Reload
	movq	4784(%rsp), %rsi        # 8-byte Reload
	movq	784(%rsp), %rcx         # 8-byte Reload
	movq	2824(%rsp), %r8         # 8-byte Reload
	movq	792(%rsp), %r9          # 8-byte Reload
	movq	2816(%rsp), %r10        # 8-byte Reload
	movq	%r10, (%rsp)
	movl	%eax, 520(%rsp)         # 4-byte Spill
	callq	trace_logger_log_int
.Ltmp40:
	#DEBUG_VALUE: stencil:Si <- [RSP+520]
	.loc	1 47 0                  # stencil.c:47:0
	movq	2856(%rsp), %rdi        # 8-byte Reload
	movq	2848(%rsp), %rsi        # 8-byte Reload
	movq	2840(%rsp), %rdx        # 8-byte Reload
	movq	2832(%rsp), %rcx        # 8-byte Reload
	movq	4792(%rsp), %r8         # 8-byte Reload
	movl	804(%rsp), %r9d         # 4-byte Reload
	movl	$1, (%rsp)
	callq	trace_logger_log0
	movl	520(%rsp), %eax         # 4-byte Reload
	movl	%eax, %r9d
	movl	%r9d, %edx
	movq	808(%rsp), %rdi         # 8-byte Reload
	movq	4784(%rsp), %rsi        # 8-byte Reload
	movq	784(%rsp), %rcx         # 8-byte Reload
	movq	2872(%rsp), %r8         # 8-byte Reload
	movq	792(%rsp), %r9          # 8-byte Reload
	movq	2864(%rsp), %r10        # 8-byte Reload
	movq	%r10, (%rsp)
	callq	trace_logger_log_int
	movl	556(%rsp), %eax         # 4-byte Reload
	movl	%eax, %eax
	movl	%eax, %edx
	movq	784(%rsp), %rdi         # 8-byte Reload
	movq	4784(%rsp), %rsi        # 8-byte Reload
	movq	784(%rsp), %rcx         # 8-byte Reload
	movq	2888(%rsp), %r8         # 8-byte Reload
	movq	792(%rsp), %r9          # 8-byte Reload
	movq	2880(%rsp), %r10        # 8-byte Reload
	movq	%r10, (%rsp)
	callq	trace_logger_log_int
	movl	556(%rsp), %eax         # 4-byte Reload
	movl	520(%rsp), %esi         # 4-byte Reload
	addl	%esi, %eax
	movl	%eax, %esi
	movl	%esi, %edx
	movq	4968(%rsp), %rdi        # 8-byte Reload
	movq	4784(%rsp), %rsi        # 8-byte Reload
	movq	784(%rsp), %rcx         # 8-byte Reload
	movq	2904(%rsp), %r8         # 8-byte Reload
	movq	792(%rsp), %r9          # 8-byte Reload
	movq	2896(%rsp), %r10        # 8-byte Reload
	movq	%r10, (%rsp)
	movl	%eax, 516(%rsp)         # 4-byte Spill
	callq	trace_logger_log_int
.Ltmp41:
	#DEBUG_VALUE: stencil:tmp <- [RSP+516]
	.loc	1 48 0                  # stencil.c:48:0
	movq	2936(%rsp), %rdi        # 8-byte Reload
	movq	2928(%rsp), %rsi        # 8-byte Reload
	movq	2920(%rsp), %rdx        # 8-byte Reload
	movq	2912(%rsp), %rcx        # 8-byte Reload
	movq	4792(%rsp), %r8         # 8-byte Reload
	movl	804(%rsp), %r9d         # 4-byte Reload
	movl	$1, (%rsp)
	callq	trace_logger_log0
	movq	808(%rsp), %rdi         # 8-byte Reload
	movq	4944(%rsp), %rsi        # 8-byte Reload
	movq	2960(%rsp), %rdx        # 8-byte Reload
	movq	792(%rsp), %rcx         # 8-byte Reload
	movq	2952(%rsp), %r8         # 8-byte Reload
	movq	792(%rsp), %r9          # 8-byte Reload
	movq	2944(%rsp), %r10        # 8-byte Reload
	movq	%r10, (%rsp)
	callq	trace_logger_log_int
	movq	784(%rsp), %rdi         # 8-byte Reload
	movq	4944(%rsp), %rsi        # 8-byte Reload
	movq	696(%rsp), %rdx         # 8-byte Reload
	movq	784(%rsp), %rcx         # 8-byte Reload
	movq	2976(%rsp), %r8         # 8-byte Reload
	movq	792(%rsp), %r9          # 8-byte Reload
	movq	2968(%rsp), %r10        # 8-byte Reload
	movq	%r10, (%rsp)
	callq	trace_logger_log_int
	movq	696(%rsp), %rcx         # 8-byte Reload
	addq	$34, %rcx
	.loc	1 49 0                  # stencil.c:49:0
	movq	4968(%rsp), %rdi        # 8-byte Reload
	movq	4944(%rsp), %rsi        # 8-byte Reload
	movq	%rcx, %rdx
	movq	784(%rsp), %r8          # 8-byte Reload
	movq	%rcx, 504(%rsp)         # 8-byte Spill
	movq	%r8, %rcx
	movq	2992(%rsp), %r8         # 8-byte Reload
	movq	792(%rsp), %r9          # 8-byte Reload
	movq	2984(%rsp), %r10        # 8-byte Reload
	movq	%r10, (%rsp)
	callq	trace_logger_log_int
.Ltmp42:
	#DEBUG_VALUE: stencil:fidx <- 5
	.loc	1 51 0                  # stencil.c:51:0
	movq	3208(%rsp), %rdi        # 8-byte Reload
	movq	3016(%rsp), %rsi        # 8-byte Reload
	movq	3008(%rsp), %rdx        # 8-byte Reload
	movq	3000(%rsp), %rcx        # 8-byte Reload
	movq	4400(%rsp), %r8         # 8-byte Reload
	movl	804(%rsp), %r9d         # 4-byte Reload
	movl	$1, (%rsp)
	callq	trace_logger_log0
	movq	784(%rsp), %rdi         # 8-byte Reload
	movq	4944(%rsp), %rsi        # 8-byte Reload
	movq	5320(%rsp), %rdx        # 8-byte Reload
	movq	784(%rsp), %rcx         # 8-byte Reload
	movq	3032(%rsp), %r8         # 8-byte Reload
	movq	792(%rsp), %r9          # 8-byte Reload
	movq	3024(%rsp), %r10        # 8-byte Reload
	movq	%r10, (%rsp)
	callq	trace_logger_log_int
	movq	5320(%rsp), %rcx        # 8-byte Reload
	movl	(%rcx), %eax
	movl	%eax, %esi
	movl	%esi, %edx
	movq	4968(%rsp), %rdi        # 8-byte Reload
	movq	4784(%rsp), %rsi        # 8-byte Reload
	movq	784(%rsp), %rcx         # 8-byte Reload
	movq	3048(%rsp), %r8         # 8-byte Reload
	movq	792(%rsp), %r9          # 8-byte Reload
	movq	3040(%rsp), %r10        # 8-byte Reload
	movq	%r10, (%rsp)
	movl	%eax, 500(%rsp)         # 4-byte Spill
	callq	trace_logger_log_int
	movq	3208(%rsp), %rdi        # 8-byte Reload
	movq	3072(%rsp), %rsi        # 8-byte Reload
	movq	3064(%rsp), %rdx        # 8-byte Reload
	movq	3056(%rsp), %rcx        # 8-byte Reload
	movq	4632(%rsp), %r8         # 8-byte Reload
	movl	804(%rsp), %r9d         # 4-byte Reload
	movl	$1, (%rsp)
	callq	trace_logger_log0
	movq	808(%rsp), %rdi         # 8-byte Reload
	movq	4944(%rsp), %rsi        # 8-byte Reload
	movq	504(%rsp), %rdx         # 8-byte Reload
	movq	784(%rsp), %rcx         # 8-byte Reload
	movq	3088(%rsp), %r8         # 8-byte Reload
	movq	792(%rsp), %r9          # 8-byte Reload
	movq	3080(%rsp), %r10        # 8-byte Reload
	movq	%r10, (%rsp)
	callq	trace_logger_log_int
	movq	784(%rsp), %rdi         # 8-byte Reload
	movq	4944(%rsp), %rsi        # 8-byte Reload
	movq	5464(%rsp), %rdx        # 8-byte Reload
	movq	784(%rsp), %rcx         # 8-byte Reload
	movq	3104(%rsp), %r8         # 8-byte Reload
	movq	792(%rsp), %r9          # 8-byte Reload
	movq	3096(%rsp), %r10        # 8-byte Reload
	movq	%r10, (%rsp)
	callq	trace_logger_log_int
	movq	504(%rsp), %rcx         # 8-byte Reload
	shlq	$2, %rcx
	movq	5464(%rsp), %rdx        # 8-byte Reload
	addq	%rcx, %rdx
	movq	4968(%rsp), %rdi        # 8-byte Reload
	movq	4944(%rsp), %rsi        # 8-byte Reload
	movq	%rdx, 488(%rsp)         # 8-byte Spill
	movq	784(%rsp), %rcx         # 8-byte Reload
	movq	3120(%rsp), %r8         # 8-byte Reload
	movq	792(%rsp), %r9          # 8-byte Reload
	movq	3112(%rsp), %r10        # 8-byte Reload
	movq	%r10, (%rsp)
	callq	trace_logger_log_int
	movq	3208(%rsp), %rdi        # 8-byte Reload
	movq	3144(%rsp), %rsi        # 8-byte Reload
	movq	3136(%rsp), %rdx        # 8-byte Reload
	movq	3128(%rsp), %rcx        # 8-byte Reload
	movq	4400(%rsp), %r8         # 8-byte Reload
	movl	804(%rsp), %r9d         # 4-byte Reload
	movl	$1, (%rsp)
	callq	trace_logger_log0
	movq	784(%rsp), %rdi         # 8-byte Reload
	movq	4944(%rsp), %rsi        # 8-byte Reload
	movq	488(%rsp), %rdx         # 8-byte Reload
	movq	784(%rsp), %rcx         # 8-byte Reload
	movq	3160(%rsp), %r8         # 8-byte Reload
	movq	792(%rsp), %r9          # 8-byte Reload
	movq	3152(%rsp), %r10        # 8-byte Reload
	movq	%r10, (%rsp)
	callq	trace_logger_log_int
	movq	5464(%rsp), %rcx        # 8-byte Reload
	movq	696(%rsp), %rdx         # 8-byte Reload
	movl	136(%rcx,%rdx,4), %eax
	movl	%eax, %esi
	movl	%esi, %edx
	movq	4968(%rsp), %rdi        # 8-byte Reload
	movq	4784(%rsp), %rsi        # 8-byte Reload
	movq	784(%rsp), %rcx         # 8-byte Reload
	movq	3176(%rsp), %r8         # 8-byte Reload
	movq	792(%rsp), %r9          # 8-byte Reload
	movq	3168(%rsp), %r10        # 8-byte Reload
	movq	%r10, (%rsp)
	movl	%eax, 484(%rsp)         # 4-byte Spill
	callq	trace_logger_log_int
	movq	3208(%rsp), %rdi        # 8-byte Reload
	movq	3200(%rsp), %rsi        # 8-byte Reload
	movq	3192(%rsp), %rdx        # 8-byte Reload
	movq	3184(%rsp), %rcx        # 8-byte Reload
	movq	4464(%rsp), %r8         # 8-byte Reload
	movl	804(%rsp), %r9d         # 4-byte Reload
	movl	$1, (%rsp)
	callq	trace_logger_log0
	movl	500(%rsp), %eax         # 4-byte Reload
	movl	%eax, %r9d
	movl	%r9d, %edx
	movq	808(%rsp), %rdi         # 8-byte Reload
	movq	4784(%rsp), %rsi        # 8-byte Reload
	movq	784(%rsp), %rcx         # 8-byte Reload
	movq	3224(%rsp), %r8         # 8-byte Reload
	movq	792(%rsp), %r9          # 8-byte Reload
	movq	3216(%rsp), %r10        # 8-byte Reload
	movq	%r10, (%rsp)
	callq	trace_logger_log_int
	movl	484(%rsp), %eax         # 4-byte Reload
	movl	%eax, %eax
	movl	%eax, %edx
	movq	784(%rsp), %rdi         # 8-byte Reload
	movq	4784(%rsp), %rsi        # 8-byte Reload
	movq	784(%rsp), %rcx         # 8-byte Reload
	movq	3240(%rsp), %r8         # 8-byte Reload
	movq	792(%rsp), %r9          # 8-byte Reload
	movq	3232(%rsp), %r10        # 8-byte Reload
	movq	%r10, (%rsp)
	callq	trace_logger_log_int
	movl	484(%rsp), %eax         # 4-byte Reload
	movl	500(%rsp), %esi         # 4-byte Reload
	imull	%esi, %eax
	movl	%eax, %esi
	movl	%esi, %edx
	movq	4968(%rsp), %rdi        # 8-byte Reload
	movq	4784(%rsp), %rsi        # 8-byte Reload
	movq	784(%rsp), %rcx         # 8-byte Reload
	movq	3256(%rsp), %r8         # 8-byte Reload
	movq	792(%rsp), %r9          # 8-byte Reload
	movq	3248(%rsp), %r10        # 8-byte Reload
	movq	%r10, (%rsp)
	movl	%eax, 480(%rsp)         # 4-byte Spill
	callq	trace_logger_log_int
.Ltmp43:
	#DEBUG_VALUE: stencil:Si <- [RSP+480]
	.loc	1 52 0                  # stencil.c:52:0
	movq	3288(%rsp), %rdi        # 8-byte Reload
	movq	3280(%rsp), %rsi        # 8-byte Reload
	movq	3272(%rsp), %rdx        # 8-byte Reload
	movq	3264(%rsp), %rcx        # 8-byte Reload
	movq	4792(%rsp), %r8         # 8-byte Reload
	movl	804(%rsp), %r9d         # 4-byte Reload
	movl	$1, (%rsp)
	callq	trace_logger_log0
	movl	480(%rsp), %eax         # 4-byte Reload
	movl	%eax, %r9d
	movl	%r9d, %edx
	movq	808(%rsp), %rdi         # 8-byte Reload
	movq	4784(%rsp), %rsi        # 8-byte Reload
	movq	784(%rsp), %rcx         # 8-byte Reload
	movq	3304(%rsp), %r8         # 8-byte Reload
	movq	792(%rsp), %r9          # 8-byte Reload
	movq	3296(%rsp), %r10        # 8-byte Reload
	movq	%r10, (%rsp)
	callq	trace_logger_log_int
	movl	516(%rsp), %eax         # 4-byte Reload
	movl	%eax, %eax
	movl	%eax, %edx
	movq	784(%rsp), %rdi         # 8-byte Reload
	movq	4784(%rsp), %rsi        # 8-byte Reload
	movq	784(%rsp), %rcx         # 8-byte Reload
	movq	3320(%rsp), %r8         # 8-byte Reload
	movq	792(%rsp), %r9          # 8-byte Reload
	movq	3312(%rsp), %r10        # 8-byte Reload
	movq	%r10, (%rsp)
	callq	trace_logger_log_int
	movl	516(%rsp), %eax         # 4-byte Reload
	movl	480(%rsp), %esi         # 4-byte Reload
	addl	%esi, %eax
	movl	%eax, %esi
	movl	%esi, %edx
	movq	4968(%rsp), %rdi        # 8-byte Reload
	movq	4784(%rsp), %rsi        # 8-byte Reload
	movq	784(%rsp), %rcx         # 8-byte Reload
	movq	3336(%rsp), %r8         # 8-byte Reload
	movq	792(%rsp), %r9          # 8-byte Reload
	movq	3328(%rsp), %r10        # 8-byte Reload
	movq	%r10, (%rsp)
	movl	%eax, 476(%rsp)         # 4-byte Spill
	callq	trace_logger_log_int
.Ltmp44:
	#DEBUG_VALUE: stencil:tmp <- [RSP+476]
	#DEBUG_VALUE: stencil:fidx <- 6
	.loc	1 56 0                  # stencil.c:56:0
	movq	3368(%rsp), %rdi        # 8-byte Reload
	movq	3360(%rsp), %rsi        # 8-byte Reload
	movq	3352(%rsp), %rdx        # 8-byte Reload
	movq	3344(%rsp), %rcx        # 8-byte Reload
	movq	4792(%rsp), %r8         # 8-byte Reload
	movl	804(%rsp), %r9d         # 4-byte Reload
	movl	$1, (%rsp)
	callq	trace_logger_log0
	movq	808(%rsp), %rdi         # 8-byte Reload
	movq	4944(%rsp), %rsi        # 8-byte Reload
	movq	4944(%rsp), %rdx        # 8-byte Reload
	movq	792(%rsp), %rcx         # 8-byte Reload
	movq	3384(%rsp), %r8         # 8-byte Reload
	movq	792(%rsp), %r9          # 8-byte Reload
	movq	3376(%rsp), %r10        # 8-byte Reload
	movq	%r10, (%rsp)
	callq	trace_logger_log_int
	movq	784(%rsp), %rdi         # 8-byte Reload
	movq	4944(%rsp), %rsi        # 8-byte Reload
	movq	696(%rsp), %rdx         # 8-byte Reload
	movq	784(%rsp), %rcx         # 8-byte Reload
	movq	3400(%rsp), %r8         # 8-byte Reload
	movq	792(%rsp), %r9          # 8-byte Reload
	movq	3392(%rsp), %r10        # 8-byte Reload
	movq	%r10, (%rsp)
	callq	trace_logger_log_int
	movq	696(%rsp), %rcx         # 8-byte Reload
	addq	$64, %rcx
	.loc	1 58 0                  # stencil.c:58:0
	movq	4968(%rsp), %rdi        # 8-byte Reload
	movq	4944(%rsp), %rsi        # 8-byte Reload
	movq	%rcx, %rdx
	movq	784(%rsp), %r8          # 8-byte Reload
	movq	%rcx, 464(%rsp)         # 8-byte Spill
	movq	%r8, %rcx
	movq	3416(%rsp), %r8         # 8-byte Reload
	movq	792(%rsp), %r9          # 8-byte Reload
	movq	3408(%rsp), %r10        # 8-byte Reload
	movq	%r10, (%rsp)
	callq	trace_logger_log_int
	movq	3632(%rsp), %rdi        # 8-byte Reload
	movq	3440(%rsp), %rsi        # 8-byte Reload
	movq	3432(%rsp), %rdx        # 8-byte Reload
	movq	3424(%rsp), %rcx        # 8-byte Reload
	movq	4400(%rsp), %r8         # 8-byte Reload
	movl	804(%rsp), %r9d         # 4-byte Reload
	movl	$1, (%rsp)
	callq	trace_logger_log0
	movq	784(%rsp), %rdi         # 8-byte Reload
	movq	4944(%rsp), %rsi        # 8-byte Reload
	movq	5312(%rsp), %rdx        # 8-byte Reload
	movq	784(%rsp), %rcx         # 8-byte Reload
	movq	3456(%rsp), %r8         # 8-byte Reload
	movq	792(%rsp), %r9          # 8-byte Reload
	movq	3448(%rsp), %r10        # 8-byte Reload
	movq	%r10, (%rsp)
	callq	trace_logger_log_int
	movq	5312(%rsp), %rcx        # 8-byte Reload
	movl	(%rcx), %eax
	movl	%eax, %esi
	movl	%esi, %edx
	movq	4968(%rsp), %rdi        # 8-byte Reload
	movq	4784(%rsp), %rsi        # 8-byte Reload
	movq	784(%rsp), %rcx         # 8-byte Reload
	movq	3472(%rsp), %r8         # 8-byte Reload
	movq	792(%rsp), %r9          # 8-byte Reload
	movq	3464(%rsp), %r10        # 8-byte Reload
	movq	%r10, (%rsp)
	movl	%eax, 460(%rsp)         # 4-byte Spill
	callq	trace_logger_log_int
	movq	3632(%rsp), %rdi        # 8-byte Reload
	movq	3496(%rsp), %rsi        # 8-byte Reload
	movq	3488(%rsp), %rdx        # 8-byte Reload
	movq	3480(%rsp), %rcx        # 8-byte Reload
	movq	4632(%rsp), %r8         # 8-byte Reload
	movl	804(%rsp), %r9d         # 4-byte Reload
	movl	$1, (%rsp)
	callq	trace_logger_log0
	movq	808(%rsp), %rdi         # 8-byte Reload
	movq	4944(%rsp), %rsi        # 8-byte Reload
	movq	464(%rsp), %rdx         # 8-byte Reload
	movq	784(%rsp), %rcx         # 8-byte Reload
	movq	3512(%rsp), %r8         # 8-byte Reload
	movq	792(%rsp), %r9          # 8-byte Reload
	movq	3504(%rsp), %r10        # 8-byte Reload
	movq	%r10, (%rsp)
	callq	trace_logger_log_int
	movq	784(%rsp), %rdi         # 8-byte Reload
	movq	4944(%rsp), %rsi        # 8-byte Reload
	movq	5464(%rsp), %rdx        # 8-byte Reload
	movq	784(%rsp), %rcx         # 8-byte Reload
	movq	3528(%rsp), %r8         # 8-byte Reload
	movq	792(%rsp), %r9          # 8-byte Reload
	movq	3520(%rsp), %r10        # 8-byte Reload
	movq	%r10, (%rsp)
	callq	trace_logger_log_int
	movq	464(%rsp), %rcx         # 8-byte Reload
	shlq	$2, %rcx
	movq	5464(%rsp), %rdx        # 8-byte Reload
	addq	%rcx, %rdx
	movq	4968(%rsp), %rdi        # 8-byte Reload
	movq	4944(%rsp), %rsi        # 8-byte Reload
	movq	%rdx, 448(%rsp)         # 8-byte Spill
	movq	784(%rsp), %rcx         # 8-byte Reload
	movq	3544(%rsp), %r8         # 8-byte Reload
	movq	792(%rsp), %r9          # 8-byte Reload
	movq	3536(%rsp), %r10        # 8-byte Reload
	movq	%r10, (%rsp)
	callq	trace_logger_log_int
	movq	3632(%rsp), %rdi        # 8-byte Reload
	movq	3568(%rsp), %rsi        # 8-byte Reload
	movq	3560(%rsp), %rdx        # 8-byte Reload
	movq	3552(%rsp), %rcx        # 8-byte Reload
	movq	4400(%rsp), %r8         # 8-byte Reload
	movl	804(%rsp), %r9d         # 4-byte Reload
	movl	$1, (%rsp)
	callq	trace_logger_log0
	movq	784(%rsp), %rdi         # 8-byte Reload
	movq	4944(%rsp), %rsi        # 8-byte Reload
	movq	448(%rsp), %rdx         # 8-byte Reload
	movq	784(%rsp), %rcx         # 8-byte Reload
	movq	3584(%rsp), %r8         # 8-byte Reload
	movq	792(%rsp), %r9          # 8-byte Reload
	movq	3576(%rsp), %r10        # 8-byte Reload
	movq	%r10, (%rsp)
	callq	trace_logger_log_int
	movq	5464(%rsp), %rcx        # 8-byte Reload
	movq	696(%rsp), %rdx         # 8-byte Reload
	movl	256(%rcx,%rdx,4), %eax
	movl	%eax, %esi
	movl	%esi, %edx
	movq	4968(%rsp), %rdi        # 8-byte Reload
	movq	4784(%rsp), %rsi        # 8-byte Reload
	movq	784(%rsp), %rcx         # 8-byte Reload
	movq	3600(%rsp), %r8         # 8-byte Reload
	movq	792(%rsp), %r9          # 8-byte Reload
	movq	3592(%rsp), %r10        # 8-byte Reload
	movq	%r10, (%rsp)
	movl	%eax, 444(%rsp)         # 4-byte Spill
	callq	trace_logger_log_int
	movq	3632(%rsp), %rdi        # 8-byte Reload
	movq	3624(%rsp), %rsi        # 8-byte Reload
	movq	3616(%rsp), %rdx        # 8-byte Reload
	movq	3608(%rsp), %rcx        # 8-byte Reload
	movq	4464(%rsp), %r8         # 8-byte Reload
	movl	804(%rsp), %r9d         # 4-byte Reload
	movl	$1, (%rsp)
	callq	trace_logger_log0
	movl	460(%rsp), %eax         # 4-byte Reload
	movl	%eax, %r9d
	movl	%r9d, %edx
	movq	808(%rsp), %rdi         # 8-byte Reload
	movq	4784(%rsp), %rsi        # 8-byte Reload
	movq	784(%rsp), %rcx         # 8-byte Reload
	movq	3648(%rsp), %r8         # 8-byte Reload
	movq	792(%rsp), %r9          # 8-byte Reload
	movq	3640(%rsp), %r10        # 8-byte Reload
	movq	%r10, (%rsp)
	callq	trace_logger_log_int
	movl	444(%rsp), %eax         # 4-byte Reload
	movl	%eax, %eax
	movl	%eax, %edx
	movq	784(%rsp), %rdi         # 8-byte Reload
	movq	4784(%rsp), %rsi        # 8-byte Reload
	movq	784(%rsp), %rcx         # 8-byte Reload
	movq	3664(%rsp), %r8         # 8-byte Reload
	movq	792(%rsp), %r9          # 8-byte Reload
	movq	3656(%rsp), %r10        # 8-byte Reload
	movq	%r10, (%rsp)
	callq	trace_logger_log_int
	movl	444(%rsp), %eax         # 4-byte Reload
	movl	460(%rsp), %esi         # 4-byte Reload
	imull	%esi, %eax
	movl	%eax, %esi
	movl	%esi, %edx
	movq	4968(%rsp), %rdi        # 8-byte Reload
	movq	4784(%rsp), %rsi        # 8-byte Reload
	movq	784(%rsp), %rcx         # 8-byte Reload
	movq	3680(%rsp), %r8         # 8-byte Reload
	movq	792(%rsp), %r9          # 8-byte Reload
	movq	3672(%rsp), %r10        # 8-byte Reload
	movq	%r10, (%rsp)
	movl	%eax, 440(%rsp)         # 4-byte Spill
	callq	trace_logger_log_int
.Ltmp45:
	#DEBUG_VALUE: stencil:Si <- [RSP+440]
	.loc	1 59 0                  # stencil.c:59:0
	movq	3712(%rsp), %rdi        # 8-byte Reload
	movq	3704(%rsp), %rsi        # 8-byte Reload
	movq	3696(%rsp), %rdx        # 8-byte Reload
	movq	3688(%rsp), %rcx        # 8-byte Reload
	movq	4792(%rsp), %r8         # 8-byte Reload
	movl	804(%rsp), %r9d         # 4-byte Reload
	movl	$1, (%rsp)
	callq	trace_logger_log0
	movl	440(%rsp), %eax         # 4-byte Reload
	movl	%eax, %r9d
	movl	%r9d, %edx
	movq	808(%rsp), %rdi         # 8-byte Reload
	movq	4784(%rsp), %rsi        # 8-byte Reload
	movq	784(%rsp), %rcx         # 8-byte Reload
	movq	3728(%rsp), %r8         # 8-byte Reload
	movq	792(%rsp), %r9          # 8-byte Reload
	movq	3720(%rsp), %r10        # 8-byte Reload
	movq	%r10, (%rsp)
	callq	trace_logger_log_int
	movl	476(%rsp), %eax         # 4-byte Reload
	movl	%eax, %eax
	movl	%eax, %edx
	movq	784(%rsp), %rdi         # 8-byte Reload
	movq	4784(%rsp), %rsi        # 8-byte Reload
	movq	784(%rsp), %rcx         # 8-byte Reload
	movq	3744(%rsp), %r8         # 8-byte Reload
	movq	792(%rsp), %r9          # 8-byte Reload
	movq	3736(%rsp), %r10        # 8-byte Reload
	movq	%r10, (%rsp)
	callq	trace_logger_log_int
	movl	476(%rsp), %eax         # 4-byte Reload
	movl	440(%rsp), %esi         # 4-byte Reload
	addl	%esi, %eax
	movl	%eax, %esi
	movl	%esi, %edx
	movq	4968(%rsp), %rdi        # 8-byte Reload
	movq	4784(%rsp), %rsi        # 8-byte Reload
	movq	784(%rsp), %rcx         # 8-byte Reload
	movq	3760(%rsp), %r8         # 8-byte Reload
	movq	792(%rsp), %r9          # 8-byte Reload
	movq	3752(%rsp), %r10        # 8-byte Reload
	movq	%r10, (%rsp)
	movl	%eax, 436(%rsp)         # 4-byte Spill
	callq	trace_logger_log_int
.Ltmp46:
	#DEBUG_VALUE: stencil:tmp <- [RSP+436]
	.loc	1 60 0                  # stencil.c:60:0
	movq	3792(%rsp), %rdi        # 8-byte Reload
	movq	3784(%rsp), %rsi        # 8-byte Reload
	movq	3776(%rsp), %rdx        # 8-byte Reload
	movq	3768(%rsp), %rcx        # 8-byte Reload
	movq	4792(%rsp), %r8         # 8-byte Reload
	movl	804(%rsp), %r9d         # 4-byte Reload
	movl	$1, (%rsp)
	callq	trace_logger_log0
	movq	808(%rsp), %rdi         # 8-byte Reload
	movq	4944(%rsp), %rsi        # 8-byte Reload
	movq	4208(%rsp), %rdx        # 8-byte Reload
	movq	792(%rsp), %rcx         # 8-byte Reload
	movq	3808(%rsp), %r8         # 8-byte Reload
	movq	792(%rsp), %r9          # 8-byte Reload
	movq	3800(%rsp), %r10        # 8-byte Reload
	movq	%r10, (%rsp)
	callq	trace_logger_log_int
	movq	784(%rsp), %rdi         # 8-byte Reload
	movq	4944(%rsp), %rsi        # 8-byte Reload
	movq	696(%rsp), %rdx         # 8-byte Reload
	movq	784(%rsp), %rcx         # 8-byte Reload
	movq	3824(%rsp), %r8         # 8-byte Reload
	movq	792(%rsp), %r9          # 8-byte Reload
	movq	3816(%rsp), %r10        # 8-byte Reload
	movq	%r10, (%rsp)
	callq	trace_logger_log_int
	movq	696(%rsp), %rcx         # 8-byte Reload
	addq	$65, %rcx
	.loc	1 61 0                  # stencil.c:61:0
	movq	4968(%rsp), %rdi        # 8-byte Reload
	movq	4944(%rsp), %rsi        # 8-byte Reload
	movq	%rcx, %rdx
	movq	784(%rsp), %r8          # 8-byte Reload
	movq	%rcx, 424(%rsp)         # 8-byte Spill
	movq	%r8, %rcx
	movq	3840(%rsp), %r8         # 8-byte Reload
	movq	792(%rsp), %r9          # 8-byte Reload
	movq	3832(%rsp), %r10        # 8-byte Reload
	movq	%r10, (%rsp)
	callq	trace_logger_log_int
.Ltmp47:
	#DEBUG_VALUE: stencil:fidx <- 7
	.loc	1 63 0                  # stencil.c:63:0
	movq	4056(%rsp), %rdi        # 8-byte Reload
	movq	3864(%rsp), %rsi        # 8-byte Reload
	movq	3856(%rsp), %rdx        # 8-byte Reload
	movq	3848(%rsp), %rcx        # 8-byte Reload
	movq	4400(%rsp), %r8         # 8-byte Reload
	movl	804(%rsp), %r9d         # 4-byte Reload
	movl	$1, (%rsp)
	callq	trace_logger_log0
	movq	784(%rsp), %rdi         # 8-byte Reload
	movq	4944(%rsp), %rsi        # 8-byte Reload
	movq	5304(%rsp), %rdx        # 8-byte Reload
	movq	784(%rsp), %rcx         # 8-byte Reload
	movq	3880(%rsp), %r8         # 8-byte Reload
	movq	792(%rsp), %r9          # 8-byte Reload
	movq	3872(%rsp), %r10        # 8-byte Reload
	movq	%r10, (%rsp)
	callq	trace_logger_log_int
	movq	5304(%rsp), %rcx        # 8-byte Reload
	movl	(%rcx), %eax
	movl	%eax, %esi
	movl	%esi, %edx
	movq	4968(%rsp), %rdi        # 8-byte Reload
	movq	4784(%rsp), %rsi        # 8-byte Reload
	movq	784(%rsp), %rcx         # 8-byte Reload
	movq	3896(%rsp), %r8         # 8-byte Reload
	movq	792(%rsp), %r9          # 8-byte Reload
	movq	3888(%rsp), %r10        # 8-byte Reload
	movq	%r10, (%rsp)
	movl	%eax, 420(%rsp)         # 4-byte Spill
	callq	trace_logger_log_int
	movq	4056(%rsp), %rdi        # 8-byte Reload
	movq	3920(%rsp), %rsi        # 8-byte Reload
	movq	3912(%rsp), %rdx        # 8-byte Reload
	movq	3904(%rsp), %rcx        # 8-byte Reload
	movq	4632(%rsp), %r8         # 8-byte Reload
	movl	804(%rsp), %r9d         # 4-byte Reload
	movl	$1, (%rsp)
	callq	trace_logger_log0
	movq	808(%rsp), %rdi         # 8-byte Reload
	movq	4944(%rsp), %rsi        # 8-byte Reload
	movq	424(%rsp), %rdx         # 8-byte Reload
	movq	784(%rsp), %rcx         # 8-byte Reload
	movq	3936(%rsp), %r8         # 8-byte Reload
	movq	792(%rsp), %r9          # 8-byte Reload
	movq	3928(%rsp), %r10        # 8-byte Reload
	movq	%r10, (%rsp)
	callq	trace_logger_log_int
	movq	784(%rsp), %rdi         # 8-byte Reload
	movq	4944(%rsp), %rsi        # 8-byte Reload
	movq	5464(%rsp), %rdx        # 8-byte Reload
	movq	784(%rsp), %rcx         # 8-byte Reload
	movq	3952(%rsp), %r8         # 8-byte Reload
	movq	792(%rsp), %r9          # 8-byte Reload
	movq	3944(%rsp), %r10        # 8-byte Reload
	movq	%r10, (%rsp)
	callq	trace_logger_log_int
	movq	424(%rsp), %rcx         # 8-byte Reload
	shlq	$2, %rcx
	movq	5464(%rsp), %rdx        # 8-byte Reload
	addq	%rcx, %rdx
	movq	4968(%rsp), %rdi        # 8-byte Reload
	movq	4944(%rsp), %rsi        # 8-byte Reload
	movq	%rdx, 408(%rsp)         # 8-byte Spill
	movq	784(%rsp), %rcx         # 8-byte Reload
	movq	3968(%rsp), %r8         # 8-byte Reload
	movq	792(%rsp), %r9          # 8-byte Reload
	movq	3960(%rsp), %r10        # 8-byte Reload
	movq	%r10, (%rsp)
	callq	trace_logger_log_int
	movq	4056(%rsp), %rdi        # 8-byte Reload
	movq	3992(%rsp), %rsi        # 8-byte Reload
	movq	3984(%rsp), %rdx        # 8-byte Reload
	movq	3976(%rsp), %rcx        # 8-byte Reload
	movq	4400(%rsp), %r8         # 8-byte Reload
	movl	804(%rsp), %r9d         # 4-byte Reload
	movl	$1, (%rsp)
	callq	trace_logger_log0
	movq	784(%rsp), %rdi         # 8-byte Reload
	movq	4944(%rsp), %rsi        # 8-byte Reload
	movq	408(%rsp), %rdx         # 8-byte Reload
	movq	784(%rsp), %rcx         # 8-byte Reload
	movq	4008(%rsp), %r8         # 8-byte Reload
	movq	792(%rsp), %r9          # 8-byte Reload
	movq	4000(%rsp), %r10        # 8-byte Reload
	movq	%r10, (%rsp)
	callq	trace_logger_log_int
	movq	5464(%rsp), %rcx        # 8-byte Reload
	movq	696(%rsp), %rdx         # 8-byte Reload
	movl	260(%rcx,%rdx,4), %eax
	movl	%eax, %esi
	movl	%esi, %edx
	movq	4968(%rsp), %rdi        # 8-byte Reload
	movq	4784(%rsp), %rsi        # 8-byte Reload
	movq	784(%rsp), %rcx         # 8-byte Reload
	movq	4024(%rsp), %r8         # 8-byte Reload
	movq	792(%rsp), %r9          # 8-byte Reload
	movq	4016(%rsp), %r10        # 8-byte Reload
	movq	%r10, (%rsp)
	movl	%eax, 404(%rsp)         # 4-byte Spill
	callq	trace_logger_log_int
	movq	4056(%rsp), %rdi        # 8-byte Reload
	movq	4048(%rsp), %rsi        # 8-byte Reload
	movq	4040(%rsp), %rdx        # 8-byte Reload
	movq	4032(%rsp), %rcx        # 8-byte Reload
	movq	4464(%rsp), %r8         # 8-byte Reload
	movl	804(%rsp), %r9d         # 4-byte Reload
	movl	$1, (%rsp)
	callq	trace_logger_log0
	movl	420(%rsp), %eax         # 4-byte Reload
	movl	%eax, %r9d
	movl	%r9d, %edx
	movq	808(%rsp), %rdi         # 8-byte Reload
	movq	4784(%rsp), %rsi        # 8-byte Reload
	movq	784(%rsp), %rcx         # 8-byte Reload
	movq	4072(%rsp), %r8         # 8-byte Reload
	movq	792(%rsp), %r9          # 8-byte Reload
	movq	4064(%rsp), %r10        # 8-byte Reload
	movq	%r10, (%rsp)
	callq	trace_logger_log_int
	movl	404(%rsp), %eax         # 4-byte Reload
	movl	%eax, %eax
	movl	%eax, %edx
	movq	784(%rsp), %rdi         # 8-byte Reload
	movq	4784(%rsp), %rsi        # 8-byte Reload
	movq	784(%rsp), %rcx         # 8-byte Reload
	movq	4088(%rsp), %r8         # 8-byte Reload
	movq	792(%rsp), %r9          # 8-byte Reload
	movq	4080(%rsp), %r10        # 8-byte Reload
	movq	%r10, (%rsp)
	callq	trace_logger_log_int
	movl	404(%rsp), %eax         # 4-byte Reload
	movl	420(%rsp), %esi         # 4-byte Reload
	imull	%esi, %eax
	movl	%eax, %esi
	movl	%esi, %edx
	movq	4968(%rsp), %rdi        # 8-byte Reload
	movq	4784(%rsp), %rsi        # 8-byte Reload
	movq	784(%rsp), %rcx         # 8-byte Reload
	movq	4104(%rsp), %r8         # 8-byte Reload
	movq	792(%rsp), %r9          # 8-byte Reload
	movq	4096(%rsp), %r10        # 8-byte Reload
	movq	%r10, (%rsp)
	movl	%eax, 400(%rsp)         # 4-byte Spill
	callq	trace_logger_log_int
.Ltmp48:
	#DEBUG_VALUE: stencil:Si <- [RSP+400]
	.loc	1 64 0                  # stencil.c:64:0
	movq	4944(%rsp), %rdi        # 8-byte Reload
	movq	4128(%rsp), %rsi        # 8-byte Reload
	movq	4120(%rsp), %rdx        # 8-byte Reload
	movq	4112(%rsp), %rcx        # 8-byte Reload
	movq	4792(%rsp), %r8         # 8-byte Reload
	movl	804(%rsp), %r9d         # 4-byte Reload
	movl	$1, (%rsp)
	callq	trace_logger_log0
	movl	400(%rsp), %eax         # 4-byte Reload
	movl	%eax, %r9d
	movl	%r9d, %edx
	movq	808(%rsp), %rdi         # 8-byte Reload
	movq	4784(%rsp), %rsi        # 8-byte Reload
	movq	784(%rsp), %rcx         # 8-byte Reload
	movq	4144(%rsp), %r8         # 8-byte Reload
	movq	792(%rsp), %r9          # 8-byte Reload
	movq	4136(%rsp), %r10        # 8-byte Reload
	movq	%r10, (%rsp)
	callq	trace_logger_log_int
	movl	436(%rsp), %eax         # 4-byte Reload
	movl	%eax, %eax
	movl	%eax, %edx
	movq	784(%rsp), %rdi         # 8-byte Reload
	movq	4784(%rsp), %rsi        # 8-byte Reload
	movq	784(%rsp), %rcx         # 8-byte Reload
	movq	4160(%rsp), %r8         # 8-byte Reload
	movq	792(%rsp), %r9          # 8-byte Reload
	movq	4152(%rsp), %r10        # 8-byte Reload
	movq	%r10, (%rsp)
	callq	trace_logger_log_int
	movl	436(%rsp), %eax         # 4-byte Reload
	movl	400(%rsp), %esi         # 4-byte Reload
	addl	%esi, %eax
	movl	%eax, %esi
	movl	%esi, %edx
	movq	4968(%rsp), %rdi        # 8-byte Reload
	movq	4784(%rsp), %rsi        # 8-byte Reload
	movq	784(%rsp), %rcx         # 8-byte Reload
	movq	4176(%rsp), %r8         # 8-byte Reload
	movq	792(%rsp), %r9          # 8-byte Reload
	movq	4168(%rsp), %r10        # 8-byte Reload
	movq	%r10, (%rsp)
	movl	%eax, 396(%rsp)         # 4-byte Spill
	callq	trace_logger_log_int
.Ltmp49:
	#DEBUG_VALUE: stencil:tmp <- [RSP+396]
	.loc	1 65 0                  # stencil.c:65:0
	movq	4208(%rsp), %rdi        # 8-byte Reload
	movq	4200(%rsp), %rsi        # 8-byte Reload
	movq	4192(%rsp), %rdx        # 8-byte Reload
	movq	4184(%rsp), %rcx        # 8-byte Reload
	movq	4792(%rsp), %r8         # 8-byte Reload
	movl	804(%rsp), %r9d         # 4-byte Reload
	movl	$1, (%rsp)
	callq	trace_logger_log0
	movq	808(%rsp), %rdi         # 8-byte Reload
	movq	4944(%rsp), %rsi        # 8-byte Reload
	movq	4232(%rsp), %rdx        # 8-byte Reload
	movq	792(%rsp), %rcx         # 8-byte Reload
	movq	4224(%rsp), %r8         # 8-byte Reload
	movq	792(%rsp), %r9          # 8-byte Reload
	movq	4216(%rsp), %r10        # 8-byte Reload
	movq	%r10, (%rsp)
	callq	trace_logger_log_int
	movq	784(%rsp), %rdi         # 8-byte Reload
	movq	4944(%rsp), %rsi        # 8-byte Reload
	movq	696(%rsp), %rdx         # 8-byte Reload
	movq	784(%rsp), %rcx         # 8-byte Reload
	movq	4248(%rsp), %r8         # 8-byte Reload
	movq	792(%rsp), %r9          # 8-byte Reload
	movq	4240(%rsp), %r10        # 8-byte Reload
	movq	%r10, (%rsp)
	callq	trace_logger_log_int
	movq	696(%rsp), %rcx         # 8-byte Reload
	addq	$66, %rcx
	.loc	1 66 0                  # stencil.c:66:0
	movq	4968(%rsp), %rdi        # 8-byte Reload
	movq	4944(%rsp), %rsi        # 8-byte Reload
	movq	%rcx, %rdx
	movq	784(%rsp), %r8          # 8-byte Reload
	movq	%rcx, 384(%rsp)         # 8-byte Spill
	movq	%r8, %rcx
	movq	4264(%rsp), %r8         # 8-byte Reload
	movq	792(%rsp), %r9          # 8-byte Reload
	movq	4256(%rsp), %r10        # 8-byte Reload
	movq	%r10, (%rsp)
	callq	trace_logger_log_int
.Ltmp50:
	#DEBUG_VALUE: stencil:fidx <- 8
	.loc	1 68 0                  # stencil.c:68:0
	movq	4496(%rsp), %rdi        # 8-byte Reload
	movq	4288(%rsp), %rsi        # 8-byte Reload
	movq	4280(%rsp), %rdx        # 8-byte Reload
	movq	4272(%rsp), %rcx        # 8-byte Reload
	movq	4400(%rsp), %r8         # 8-byte Reload
	movl	804(%rsp), %r9d         # 4-byte Reload
	movl	$1, (%rsp)
	callq	trace_logger_log0
	movq	784(%rsp), %rdi         # 8-byte Reload
	movq	4944(%rsp), %rsi        # 8-byte Reload
	movq	5296(%rsp), %rdx        # 8-byte Reload
	movq	784(%rsp), %rcx         # 8-byte Reload
	movq	4304(%rsp), %r8         # 8-byte Reload
	movq	792(%rsp), %r9          # 8-byte Reload
	movq	4296(%rsp), %r10        # 8-byte Reload
	movq	%r10, (%rsp)
	callq	trace_logger_log_int
	movq	5296(%rsp), %rcx        # 8-byte Reload
	movl	(%rcx), %eax
	movl	%eax, %esi
	movl	%esi, %edx
	movq	4968(%rsp), %rdi        # 8-byte Reload
	movq	4784(%rsp), %rsi        # 8-byte Reload
	movq	784(%rsp), %rcx         # 8-byte Reload
	movq	4320(%rsp), %r8         # 8-byte Reload
	movq	792(%rsp), %r9          # 8-byte Reload
	movq	4312(%rsp), %r10        # 8-byte Reload
	movq	%r10, (%rsp)
	movl	%eax, 380(%rsp)         # 4-byte Spill
	callq	trace_logger_log_int
	movq	4496(%rsp), %rdi        # 8-byte Reload
	movq	4344(%rsp), %rsi        # 8-byte Reload
	movq	4336(%rsp), %rdx        # 8-byte Reload
	movq	4328(%rsp), %rcx        # 8-byte Reload
	movq	4632(%rsp), %r8         # 8-byte Reload
	movl	804(%rsp), %r9d         # 4-byte Reload
	movl	$1, (%rsp)
	callq	trace_logger_log0
	movq	808(%rsp), %rdi         # 8-byte Reload
	movq	4944(%rsp), %rsi        # 8-byte Reload
	movq	384(%rsp), %rdx         # 8-byte Reload
	movq	784(%rsp), %rcx         # 8-byte Reload
	movq	4360(%rsp), %r8         # 8-byte Reload
	movq	792(%rsp), %r9          # 8-byte Reload
	movq	4352(%rsp), %r10        # 8-byte Reload
	movq	%r10, (%rsp)
	callq	trace_logger_log_int
	movq	784(%rsp), %rdi         # 8-byte Reload
	movq	4944(%rsp), %rsi        # 8-byte Reload
	movq	5464(%rsp), %rdx        # 8-byte Reload
	movq	784(%rsp), %rcx         # 8-byte Reload
	movq	4376(%rsp), %r8         # 8-byte Reload
	movq	792(%rsp), %r9          # 8-byte Reload
	movq	4368(%rsp), %r10        # 8-byte Reload
	movq	%r10, (%rsp)
	callq	trace_logger_log_int
	movq	384(%rsp), %rcx         # 8-byte Reload
	shlq	$2, %rcx
	movq	5464(%rsp), %rdx        # 8-byte Reload
	addq	%rcx, %rdx
	movq	4968(%rsp), %rdi        # 8-byte Reload
	movq	4944(%rsp), %rsi        # 8-byte Reload
	movq	%rdx, 368(%rsp)         # 8-byte Spill
	movq	784(%rsp), %rcx         # 8-byte Reload
	movq	4392(%rsp), %r8         # 8-byte Reload
	movq	792(%rsp), %r9          # 8-byte Reload
	movq	4384(%rsp), %r10        # 8-byte Reload
	movq	%r10, (%rsp)
	callq	trace_logger_log_int
	movq	4496(%rsp), %rdi        # 8-byte Reload
	movq	4424(%rsp), %rsi        # 8-byte Reload
	movq	4416(%rsp), %rdx        # 8-byte Reload
	movq	4408(%rsp), %rcx        # 8-byte Reload
	movq	4400(%rsp), %r8         # 8-byte Reload
	movl	804(%rsp), %r9d         # 4-byte Reload
	movl	$1, (%rsp)
	callq	trace_logger_log0
	movq	784(%rsp), %rdi         # 8-byte Reload
	movq	4944(%rsp), %rsi        # 8-byte Reload
	movq	368(%rsp), %rdx         # 8-byte Reload
	movq	784(%rsp), %rcx         # 8-byte Reload
	movq	4440(%rsp), %r8         # 8-byte Reload
	movq	792(%rsp), %r9          # 8-byte Reload
	movq	4432(%rsp), %r10        # 8-byte Reload
	movq	%r10, (%rsp)
	callq	trace_logger_log_int
	movq	5464(%rsp), %rcx        # 8-byte Reload
	movq	696(%rsp), %rdx         # 8-byte Reload
	movl	264(%rcx,%rdx,4), %eax
	movl	%eax, %esi
	movl	%esi, %edx
	movq	4968(%rsp), %rdi        # 8-byte Reload
	movq	4784(%rsp), %rsi        # 8-byte Reload
	movq	784(%rsp), %rcx         # 8-byte Reload
	movq	4456(%rsp), %r8         # 8-byte Reload
	movq	792(%rsp), %r9          # 8-byte Reload
	movq	4448(%rsp), %r10        # 8-byte Reload
	movq	%r10, (%rsp)
	movl	%eax, 364(%rsp)         # 4-byte Spill
	callq	trace_logger_log_int
	movq	4496(%rsp), %rdi        # 8-byte Reload
	movq	4488(%rsp), %rsi        # 8-byte Reload
	movq	4480(%rsp), %rdx        # 8-byte Reload
	movq	4472(%rsp), %rcx        # 8-byte Reload
	movq	4464(%rsp), %r8         # 8-byte Reload
	movl	804(%rsp), %r9d         # 4-byte Reload
	movl	$1, (%rsp)
	callq	trace_logger_log0
	movl	380(%rsp), %eax         # 4-byte Reload
	movl	%eax, %r9d
	movl	%r9d, %edx
	movq	808(%rsp), %rdi         # 8-byte Reload
	movq	4784(%rsp), %rsi        # 8-byte Reload
	movq	784(%rsp), %rcx         # 8-byte Reload
	movq	4512(%rsp), %r8         # 8-byte Reload
	movq	792(%rsp), %r9          # 8-byte Reload
	movq	4504(%rsp), %r10        # 8-byte Reload
	movq	%r10, (%rsp)
	callq	trace_logger_log_int
	movl	364(%rsp), %eax         # 4-byte Reload
	movl	%eax, %eax
	movl	%eax, %edx
	movq	784(%rsp), %rdi         # 8-byte Reload
	movq	4784(%rsp), %rsi        # 8-byte Reload
	movq	784(%rsp), %rcx         # 8-byte Reload
	movq	4528(%rsp), %r8         # 8-byte Reload
	movq	792(%rsp), %r9          # 8-byte Reload
	movq	4520(%rsp), %r10        # 8-byte Reload
	movq	%r10, (%rsp)
	callq	trace_logger_log_int
	movl	364(%rsp), %eax         # 4-byte Reload
	movl	380(%rsp), %esi         # 4-byte Reload
	imull	%esi, %eax
	movl	%eax, %esi
	movl	%esi, %edx
	movq	4968(%rsp), %rdi        # 8-byte Reload
	movq	4784(%rsp), %rsi        # 8-byte Reload
	movq	784(%rsp), %rcx         # 8-byte Reload
	movq	4544(%rsp), %r8         # 8-byte Reload
	movq	792(%rsp), %r9          # 8-byte Reload
	movq	4536(%rsp), %r10        # 8-byte Reload
	movq	%r10, (%rsp)
	movl	%eax, 360(%rsp)         # 4-byte Spill
	callq	trace_logger_log_int
.Ltmp51:
	#DEBUG_VALUE: stencil:Si <- [RSP+360]
	.loc	1 69 0                  # stencil.c:69:0
	movq	4576(%rsp), %rdi        # 8-byte Reload
	movq	4568(%rsp), %rsi        # 8-byte Reload
	movq	4560(%rsp), %rdx        # 8-byte Reload
	movq	4552(%rsp), %rcx        # 8-byte Reload
	movq	4792(%rsp), %r8         # 8-byte Reload
	movl	804(%rsp), %r9d         # 4-byte Reload
	movl	$1, (%rsp)
	callq	trace_logger_log0
	movl	360(%rsp), %eax         # 4-byte Reload
	movl	%eax, %r9d
	movl	%r9d, %edx
	movq	808(%rsp), %rdi         # 8-byte Reload
	movq	4784(%rsp), %rsi        # 8-byte Reload
	movq	784(%rsp), %rcx         # 8-byte Reload
	movq	4592(%rsp), %r8         # 8-byte Reload
	movq	792(%rsp), %r9          # 8-byte Reload
	movq	4584(%rsp), %r10        # 8-byte Reload
	movq	%r10, (%rsp)
	callq	trace_logger_log_int
	movl	396(%rsp), %eax         # 4-byte Reload
	movl	%eax, %eax
	movl	%eax, %edx
	movq	784(%rsp), %rdi         # 8-byte Reload
	movq	4784(%rsp), %rsi        # 8-byte Reload
	movq	784(%rsp), %rcx         # 8-byte Reload
	movq	4608(%rsp), %r8         # 8-byte Reload
	movq	792(%rsp), %r9          # 8-byte Reload
	movq	4600(%rsp), %r10        # 8-byte Reload
	movq	%r10, (%rsp)
	callq	trace_logger_log_int
	movl	396(%rsp), %eax         # 4-byte Reload
	movl	360(%rsp), %esi         # 4-byte Reload
	addl	%esi, %eax
	movl	%eax, %esi
	movl	%esi, %edx
	movq	4968(%rsp), %rdi        # 8-byte Reload
	movq	4784(%rsp), %rsi        # 8-byte Reload
	movq	784(%rsp), %rcx         # 8-byte Reload
	movq	4624(%rsp), %r8         # 8-byte Reload
	movq	792(%rsp), %r9          # 8-byte Reload
	movq	4616(%rsp), %r10        # 8-byte Reload
	movq	%r10, (%rsp)
	movl	%eax, 356(%rsp)         # 4-byte Spill
	callq	trace_logger_log_int
.Ltmp52:
	#DEBUG_VALUE: stencil:tmp <- [RSP+356]
	.loc	1 72 0                  # stencil.c:72:0
	movq	4744(%rsp), %rdi        # 8-byte Reload
	movq	4656(%rsp), %rsi        # 8-byte Reload
	movq	4648(%rsp), %rdx        # 8-byte Reload
	movq	4640(%rsp), %rcx        # 8-byte Reload
	movq	4632(%rsp), %r8         # 8-byte Reload
	movl	804(%rsp), %r9d         # 4-byte Reload
	movl	$1, (%rsp)
	callq	trace_logger_log0
	movq	808(%rsp), %rdi         # 8-byte Reload
	movq	4944(%rsp), %rsi        # 8-byte Reload
	movq	696(%rsp), %rdx         # 8-byte Reload
	movq	784(%rsp), %rcx         # 8-byte Reload
	movq	4672(%rsp), %r8         # 8-byte Reload
	movq	792(%rsp), %r9          # 8-byte Reload
	movq	4664(%rsp), %r10        # 8-byte Reload
	movq	%r10, (%rsp)
	callq	trace_logger_log_int
	movq	784(%rsp), %rdi         # 8-byte Reload
	movq	4944(%rsp), %rsi        # 8-byte Reload
	movq	5456(%rsp), %rdx        # 8-byte Reload
	movq	784(%rsp), %rcx         # 8-byte Reload
	movq	4688(%rsp), %r8         # 8-byte Reload
	movq	792(%rsp), %r9          # 8-byte Reload
	movq	4680(%rsp), %r10        # 8-byte Reload
	movq	%r10, (%rsp)
	callq	trace_logger_log_int
	movq	696(%rsp), %rcx         # 8-byte Reload
	shlq	$2, %rcx
	movq	5456(%rsp), %rdx        # 8-byte Reload
	addq	%rcx, %rdx
	movq	4968(%rsp), %rdi        # 8-byte Reload
	movq	4944(%rsp), %rsi        # 8-byte Reload
	movq	%rdx, 344(%rsp)         # 8-byte Spill
	movq	784(%rsp), %rcx         # 8-byte Reload
	movq	4704(%rsp), %r8         # 8-byte Reload
	movq	792(%rsp), %r9          # 8-byte Reload
	movq	4696(%rsp), %r10        # 8-byte Reload
	movq	%r10, (%rsp)
	callq	trace_logger_log_int
	movq	4744(%rsp), %rdi        # 8-byte Reload
	movq	4736(%rsp), %rsi        # 8-byte Reload
	movq	4728(%rsp), %rdx        # 8-byte Reload
	movq	4720(%rsp), %rcx        # 8-byte Reload
	movq	4712(%rsp), %r8         # 8-byte Reload
	movl	804(%rsp), %r9d         # 4-byte Reload
	movl	$1, (%rsp)
	callq	trace_logger_log0
	movq	808(%rsp), %rdi         # 8-byte Reload
	movq	4944(%rsp), %rsi        # 8-byte Reload
	movq	344(%rsp), %rdx         # 8-byte Reload
	movq	784(%rsp), %rcx         # 8-byte Reload
	movq	4760(%rsp), %r8         # 8-byte Reload
	movq	792(%rsp), %r9          # 8-byte Reload
	movq	4752(%rsp), %r10        # 8-byte Reload
	movq	%r10, (%rsp)
	callq	trace_logger_log_int
	movl	356(%rsp), %eax         # 4-byte Reload
	movl	%eax, %eax
	movl	%eax, %edx
	movq	784(%rsp), %rdi         # 8-byte Reload
	movq	4784(%rsp), %rsi        # 8-byte Reload
	movq	784(%rsp), %rcx         # 8-byte Reload
	movq	4776(%rsp), %r8         # 8-byte Reload
	movq	792(%rsp), %r9          # 8-byte Reload
	movq	4768(%rsp), %r10        # 8-byte Reload
	movq	%r10, (%rsp)
	callq	trace_logger_log_int
	movq	5456(%rsp), %rcx        # 8-byte Reload
	movq	696(%rsp), %rdx         # 8-byte Reload
	movl	356(%rsp), %eax         # 4-byte Reload
	movl	%eax, (%rcx,%rdx,4)
.Ltmp53:
	.loc	1 15 0                  # stencil.c:15:0
	movq	760(%rsp), %rdi         # 8-byte Reload
	movq	4816(%rsp), %rsi        # 8-byte Reload
	movq	4808(%rsp), %rdx        # 8-byte Reload
	movq	4800(%rsp), %rcx        # 8-byte Reload
	movq	4792(%rsp), %r8         # 8-byte Reload
	movl	804(%rsp), %r9d         # 4-byte Reload
	movl	$1, (%rsp)
	callq	trace_logger_log0
	movq	808(%rsp), %rdi         # 8-byte Reload
	movq	4944(%rsp), %rsi        # 8-byte Reload
	movq	784(%rsp), %rdx         # 8-byte Reload
	movq	792(%rsp), %rcx         # 8-byte Reload
	movq	4832(%rsp), %r8         # 8-byte Reload
	movq	792(%rsp), %r9          # 8-byte Reload
	movq	4824(%rsp), %r10        # 8-byte Reload
	movq	%r10, (%rsp)
	callq	trace_logger_log_int
	movq	784(%rsp), %rdi         # 8-byte Reload
	movq	4944(%rsp), %rsi        # 8-byte Reload
	movq	4976(%rsp), %rdx        # 8-byte Reload
	movq	784(%rsp), %rcx         # 8-byte Reload
	movq	4848(%rsp), %r8         # 8-byte Reload
	movq	792(%rsp), %r9          # 8-byte Reload
	movq	4840(%rsp), %r10        # 8-byte Reload
	movq	%r10, (%rsp)
	callq	trace_logger_log_int
	movq	4976(%rsp), %rcx        # 8-byte Reload
	addq	$1, %rcx
	movq	4968(%rsp), %rdi        # 8-byte Reload
	movq	4944(%rsp), %rsi        # 8-byte Reload
	movq	%rcx, %rdx
	movq	784(%rsp), %r8          # 8-byte Reload
	movq	%rcx, 336(%rsp)         # 8-byte Spill
	movq	%r8, %rcx
	movq	4864(%rsp), %r8         # 8-byte Reload
	movq	792(%rsp), %r9          # 8-byte Reload
	movq	4856(%rsp), %r10        # 8-byte Reload
	movq	%r10, (%rsp)
	callq	trace_logger_log_int
	movq	760(%rsp), %rdi         # 8-byte Reload
	movq	4896(%rsp), %rsi        # 8-byte Reload
	movq	4888(%rsp), %rdx        # 8-byte Reload
	movq	4880(%rsp), %rcx        # 8-byte Reload
	movq	4872(%rsp), %r8         # 8-byte Reload
	movl	804(%rsp), %r9d         # 4-byte Reload
	movl	$1, (%rsp)
	callq	trace_logger_log0
	movq	808(%rsp), %rdi         # 8-byte Reload
	movq	4944(%rsp), %rsi        # 8-byte Reload
	movq	4920(%rsp), %rdx        # 8-byte Reload
	movq	792(%rsp), %rcx         # 8-byte Reload
	movq	4912(%rsp), %r8         # 8-byte Reload
	movq	792(%rsp), %r9          # 8-byte Reload
	movq	4904(%rsp), %r10        # 8-byte Reload
	movq	%r10, (%rsp)
	callq	trace_logger_log_int
	movq	784(%rsp), %rdi         # 8-byte Reload
	movq	4944(%rsp), %rsi        # 8-byte Reload
	movq	336(%rsp), %rdx         # 8-byte Reload
	movq	784(%rsp), %rcx         # 8-byte Reload
	movq	4936(%rsp), %r8         # 8-byte Reload
	movq	792(%rsp), %r9          # 8-byte Reload
	movq	4928(%rsp), %r10        # 8-byte Reload
	movq	%r10, (%rsp)
	callq	trace_logger_log_int
	movq	336(%rsp), %rcx         # 8-byte Reload
	cmpq	$30, %rcx
	sete	%al
	movb	%al, %cl
	andb	$1, %cl
	movzbl	%cl, %ecx
	movl	%ecx, %edx
	movq	4968(%rsp), %rdi        # 8-byte Reload
	movq	784(%rsp), %rsi         # 8-byte Reload
	movq	784(%rsp), %rcx         # 8-byte Reload
	movq	4960(%rsp), %r8         # 8-byte Reload
	movq	792(%rsp), %r9          # 8-byte Reload
	movq	4952(%rsp), %r10        # 8-byte Reload
	movq	%r10, (%rsp)
	movb	%al, 335(%rsp)          # 1-byte Spill
	callq	trace_logger_log_int
	movq	760(%rsp), %rdi         # 8-byte Reload
	movq	744(%rsp), %rsi         # 8-byte Reload
	movq	736(%rsp), %rdx         # 8-byte Reload
	movq	728(%rsp), %rcx         # 8-byte Reload
	movq	808(%rsp), %r8          # 8-byte Reload
	movl	804(%rsp), %r9d         # 4-byte Reload
	movl	$1, (%rsp)
	callq	trace_logger_log0
	movq	704(%rsp), %rdi         # 8-byte Reload
	movq	792(%rsp), %rsi         # 8-byte Reload
	movq	792(%rsp), %rdx         # 8-byte Reload
	movq	784(%rsp), %rcx         # 8-byte Reload
	movq	720(%rsp), %r8          # 8-byte Reload
	movq	792(%rsp), %r9          # 8-byte Reload
	movq	752(%rsp), %r10         # 8-byte Reload
	movq	%r10, (%rsp)
	callq	trace_logger_log_int
	movq	808(%rsp), %rdi         # 8-byte Reload
	movq	792(%rsp), %rsi         # 8-byte Reload
	movq	792(%rsp), %rdx         # 8-byte Reload
	movq	784(%rsp), %rcx         # 8-byte Reload
	movq	768(%rsp), %r8          # 8-byte Reload
	movq	792(%rsp), %r9          # 8-byte Reload
	movq	712(%rsp), %r10         # 8-byte Reload
	movq	%r10, (%rsp)
	callq	trace_logger_log_int
	movb	335(%rsp), %al          # 1-byte Reload
	andb	$1, %al
	movzbl	%al, %eax
	movl	%eax, %edx
	movq	784(%rsp), %rdi         # 8-byte Reload
	movq	784(%rsp), %rsi         # 8-byte Reload
	movq	784(%rsp), %rcx         # 8-byte Reload
	movq	776(%rsp), %r8          # 8-byte Reload
	movq	792(%rsp), %r9          # 8-byte Reload
	movq	4984(%rsp), %r10        # 8-byte Reload
	movq	%r10, (%rsp)
	callq	trace_logger_log_int
	movb	335(%rsp), %al          # 1-byte Reload
	testb	$1, %al
	movq	336(%rsp), %rcx         # 8-byte Reload
	movq	%rcx, 4992(%rsp)        # 8-byte Spill
	jne	.LBB0_3
	jmp	.LBB0_2
.Ltmp54:
.LBB0_3:                                #   in Loop: Header=BB0_1 Depth=1
	movabsq	$1, %rax
	leaq	.L.str620, %r8
	movabsq	$0, %rcx
	leaq	.L.str621, %rdx
	movabsq	$2, %rsi
	leaq	.L.str618, %rdi
	leaq	.L.str619, %r9
	movabsq	$3, %r10
	leaq	.L.str616, %r11
	leaq	.L.str617, %rbx
	movabsq	$14, %r14
	leaq	.L.str613, %r15
	leaq	.L.str614, %r12
	leaq	.L.str615, %r13
	movl	$1, %ebp
	movq	%rax, 320(%rsp)         # 8-byte Spill
	movabsq	$19134, %rax            # imm = 0x4ABE
	movq	%rax, 312(%rsp)         # 8-byte Spill
	leaq	.L.str611, %rax
	movq	%rax, 304(%rsp)         # 8-byte Spill
	leaq	.L.str612, %rax
	movq	%rax, 296(%rsp)         # 8-byte Spill
	movabsq	$64, %rax
	movq	%rax, 288(%rsp)         # 8-byte Spill
	leaq	.L.str609, %rax
	movq	%rax, 280(%rsp)         # 8-byte Spill
	leaq	.L.str610, %rax
	movq	%rax, 272(%rsp)         # 8-byte Spill
	movabsq	$30, %rax
	movq	%rax, 264(%rsp)         # 8-byte Spill
	leaq	.L.str607, %rax
	movq	%rax, 256(%rsp)         # 8-byte Spill
	leaq	.L.str608, %rax
	movq	%rax, 248(%rsp)         # 8-byte Spill
	leaq	.L.str604, %rax
	movq	%rax, 240(%rsp)         # 8-byte Spill
	leaq	.L.str605, %rax
	movq	%rax, 232(%rsp)         # 8-byte Spill
	leaq	.L.str606, %rax
	movq	%rax, 224(%rsp)         # 8-byte Spill
	movabsq	$46, %rax
	movq	%rax, 216(%rsp)         # 8-byte Spill
	leaq	.L.str602, %rax
	movq	%rax, 208(%rsp)         # 8-byte Spill
	leaq	.L.str603, %rax
	movq	%rax, 200(%rsp)         # 8-byte Spill
	leaq	.L.str600, %rax
	movq	%rax, 192(%rsp)         # 8-byte Spill
	leaq	.L.str601, %rax
	movq	%rax, 184(%rsp)         # 8-byte Spill
	leaq	.L.str598, %rax
	movq	%rax, 176(%rsp)         # 8-byte Spill
	leaq	.L.str599, %rax
	movq	%rax, 168(%rsp)         # 8-byte Spill
	leaq	.L.str595, %rax
	movq	%rax, 160(%rsp)         # 8-byte Spill
	leaq	.L.str596, %rax
	movq	%rax, 152(%rsp)         # 8-byte Spill
	leaq	.L.str597, %rax
	movq	%rax, 144(%rsp)         # 8-byte Spill
	movabsq	$8, %rax
	.loc	1 14 0                  # stencil.c:14:0
	movq	%rdi, 136(%rsp)         # 8-byte Spill
	movq	%r14, %rdi
	movq	%rax, 128(%rsp)         # 8-byte Spill
	movq	160(%rsp), %rax         # 8-byte Reload
	movq	%rsi, 120(%rsp)         # 8-byte Spill
	movq	%rax, %rsi
	movq	152(%rsp), %rax         # 8-byte Reload
	movq	%rdx, 112(%rsp)         # 8-byte Spill
	movq	%rax, %rdx
	movq	144(%rsp), %rax         # 8-byte Reload
	movq	%rcx, 104(%rsp)         # 8-byte Spill
	movq	%rax, %rcx
	movq	128(%rsp), %rax         # 8-byte Reload
	movq	%r8, 96(%rsp)           # 8-byte Spill
	movq	%rax, %r8
	movq	%r9, 88(%rsp)           # 8-byte Spill
	movl	%ebp, %r9d
	movl	$1, (%rsp)
	movq	%r14, 80(%rsp)          # 8-byte Spill
	movq	%r15, 72(%rsp)          # 8-byte Spill
	movq	%r12, 64(%rsp)          # 8-byte Spill
	movq	%r13, 56(%rsp)          # 8-byte Spill
	movl	%ebp, 52(%rsp)          # 4-byte Spill
	movq	%rbx, 40(%rsp)          # 8-byte Spill
	movq	%r10, 32(%rsp)          # 8-byte Spill
	movq	%r11, 24(%rsp)          # 8-byte Spill
	callq	trace_logger_log0
	movq	120(%rsp), %rdi         # 8-byte Reload
	movq	288(%rsp), %rsi         # 8-byte Reload
	movq	320(%rsp), %rdx         # 8-byte Reload
	movq	104(%rsp), %rcx         # 8-byte Reload
	movq	176(%rsp), %r8          # 8-byte Reload
	movq	104(%rsp), %r9          # 8-byte Reload
	movq	168(%rsp), %rax         # 8-byte Reload
	movq	%rax, (%rsp)
	callq	trace_logger_log_int
	movq	320(%rsp), %rdi         # 8-byte Reload
	movq	288(%rsp), %rsi         # 8-byte Reload
	movq	5280(%rsp), %rdx        # 8-byte Reload
	movq	320(%rsp), %rcx         # 8-byte Reload
	movq	192(%rsp), %r8          # 8-byte Reload
	movq	104(%rsp), %r9          # 8-byte Reload
	movq	184(%rsp), %rax         # 8-byte Reload
	movq	%rax, (%rsp)
	callq	trace_logger_log_int
	movq	5280(%rsp), %rax        # 8-byte Reload
	addq	$1, %rax
	movq	312(%rsp), %rdi         # 8-byte Reload
	movq	288(%rsp), %rsi         # 8-byte Reload
	movq	%rax, %rdx
	movq	320(%rsp), %rcx         # 8-byte Reload
	movq	208(%rsp), %r8          # 8-byte Reload
	movq	104(%rsp), %r9          # 8-byte Reload
	movq	200(%rsp), %r10         # 8-byte Reload
	movq	%r10, (%rsp)
	movq	%rax, 16(%rsp)          # 8-byte Spill
	callq	trace_logger_log_int
	movq	80(%rsp), %rdi          # 8-byte Reload
	movq	240(%rsp), %rsi         # 8-byte Reload
	movq	232(%rsp), %rdx         # 8-byte Reload
	movq	224(%rsp), %rcx         # 8-byte Reload
	movq	216(%rsp), %r8          # 8-byte Reload
	movl	52(%rsp), %r9d          # 4-byte Reload
	movl	$1, (%rsp)
	callq	trace_logger_log0
	movq	120(%rsp), %rdi         # 8-byte Reload
	movq	288(%rsp), %rsi         # 8-byte Reload
	movq	264(%rsp), %rdx         # 8-byte Reload
	movq	104(%rsp), %rcx         # 8-byte Reload
	movq	256(%rsp), %r8          # 8-byte Reload
	movq	104(%rsp), %r9          # 8-byte Reload
	movq	248(%rsp), %rax         # 8-byte Reload
	movq	%rax, (%rsp)
	callq	trace_logger_log_int
	movq	320(%rsp), %rdi         # 8-byte Reload
	movq	288(%rsp), %rsi         # 8-byte Reload
	movq	16(%rsp), %rdx          # 8-byte Reload
	movq	320(%rsp), %rcx         # 8-byte Reload
	movq	280(%rsp), %r8          # 8-byte Reload
	movq	104(%rsp), %r9          # 8-byte Reload
	movq	272(%rsp), %rax         # 8-byte Reload
	movq	%rax, (%rsp)
	callq	trace_logger_log_int
	movq	16(%rsp), %rax          # 8-byte Reload
	cmpq	$30, %rax
	sete	%al
	movb	%al, %cl
	andb	$1, %cl
	movzbl	%cl, %ebp
	movl	%ebp, %edx
	movq	312(%rsp), %rdi         # 8-byte Reload
	movq	320(%rsp), %rsi         # 8-byte Reload
	movq	320(%rsp), %rcx         # 8-byte Reload
	movq	304(%rsp), %r8          # 8-byte Reload
	movq	104(%rsp), %r9          # 8-byte Reload
	movq	296(%rsp), %r10         # 8-byte Reload
	movq	%r10, (%rsp)
	movb	%al, 15(%rsp)           # 1-byte Spill
	callq	trace_logger_log_int
	movq	80(%rsp), %rdi          # 8-byte Reload
	movq	72(%rsp), %rsi          # 8-byte Reload
	movq	64(%rsp), %rdx          # 8-byte Reload
	movq	56(%rsp), %rcx          # 8-byte Reload
	movq	120(%rsp), %r8          # 8-byte Reload
	movl	52(%rsp), %r9d          # 4-byte Reload
	movl	$1, (%rsp)
	callq	trace_logger_log0
	movq	32(%rsp), %rdi          # 8-byte Reload
	movq	104(%rsp), %rsi         # 8-byte Reload
	movq	104(%rsp), %rdx         # 8-byte Reload
	movq	320(%rsp), %rcx         # 8-byte Reload
	movq	24(%rsp), %r8           # 8-byte Reload
	movq	104(%rsp), %r9          # 8-byte Reload
	movq	40(%rsp), %r10          # 8-byte Reload
	movq	%r10, (%rsp)
	callq	trace_logger_log_int
	movq	120(%rsp), %rdi         # 8-byte Reload
	movq	104(%rsp), %rsi         # 8-byte Reload
	movq	104(%rsp), %rdx         # 8-byte Reload
	movq	320(%rsp), %rcx         # 8-byte Reload
	movq	136(%rsp), %r8          # 8-byte Reload
	movq	104(%rsp), %r9          # 8-byte Reload
	movq	88(%rsp), %r10          # 8-byte Reload
	movq	%r10, (%rsp)
	callq	trace_logger_log_int
	movb	15(%rsp), %al           # 1-byte Reload
	andb	$1, %al
	movzbl	%al, %ebp
	movl	%ebp, %edx
	movq	320(%rsp), %rdi         # 8-byte Reload
	movq	320(%rsp), %rsi         # 8-byte Reload
	movq	320(%rsp), %rcx         # 8-byte Reload
	movq	96(%rsp), %r8           # 8-byte Reload
	movq	104(%rsp), %r9          # 8-byte Reload
	movq	112(%rsp), %r10         # 8-byte Reload
	movq	%r10, (%rsp)
	callq	trace_logger_log_int
	movb	15(%rsp), %al           # 1-byte Reload
	testb	$1, %al
	movq	16(%rsp), %rcx          # 8-byte Reload
	movq	%rcx, 5288(%rsp)        # 8-byte Spill
	jne	.LBB0_4
	jmp	.LBB0_1
.Ltmp55:
.LBB0_4:
	movabsq	$78, %rdi
	leaq	.L.str622, %rsi
	leaq	.L.str623, %rdx
	leaq	.L.str624, %rcx
	movabsq	$1, %r8
	movl	$1, %r9d
	.loc	1 78 0                  # stencil.c:78:0
	movl	$1, (%rsp)
	callq	trace_logger_log0
	addq	$6168, %rsp             # imm = 0x1818
	popq	%rbx
	popq	%r12
	popq	%r13
	popq	%r14
	popq	%r15
	popq	%rbp
	ret
.Ltmp56:
.Ltmp57:
	.size	stencil, .Ltmp57-stencil
.Lfunc_end0:
	.cfi_endproc

	.section	.rodata.cst8,"aM",@progbits,8
	.align	8
.LCPI1_0:
	.quad	4746794007244308480     # double 2147483647
.LCPI1_1:
	.quad	4746794007240114176     # double 2147483646
	.text
	.globl	main
	.align	16, 0x90
	.type	main,@function
main:                                   # @main
	.cfi_startproc
.Lfunc_begin1:
	.loc	1 81 0                  # stencil.c:81:0
# BB#0:
	pushq	%rbp
.Ltmp65:
	.cfi_def_cfa_offset 16
	pushq	%r15
.Ltmp66:
	.cfi_def_cfa_offset 24
	pushq	%r14
.Ltmp67:
	.cfi_def_cfa_offset 32
	pushq	%r13
.Ltmp68:
	.cfi_def_cfa_offset 40
	pushq	%r12
.Ltmp69:
	.cfi_def_cfa_offset 48
	pushq	%rbx
.Ltmp70:
	.cfi_def_cfa_offset 56
	subq	$7032, %rsp             # imm = 0x1B78
.Ltmp71:
	.cfi_def_cfa_offset 7088
.Ltmp72:
	.cfi_offset %rbx, -56
.Ltmp73:
	.cfi_offset %r12, -48
.Ltmp74:
	.cfi_offset %r13, -40
.Ltmp75:
	.cfi_offset %r14, -32
.Ltmp76:
	.cfi_offset %r15, -24
.Ltmp77:
	.cfi_offset %rbp, -16
	leaq	.L.str1222, %rdi
	movabsq	$34, %rsi
	.loc	1 88 0 prologue_end     # stencil.c:88:0
.Ltmp78:
	callq	trace_logger_write_labelmap
	movabsq	$24601, %rdi            # imm = 0x6019
	movabsq	$32, %rsi
	movabsq	$8650341, %rax          # imm = 0x83FE65
	movabsq	$1, %rcx
	leaq	.L.str632, %r8
	movabsq	$0, %rdx
	leaq	.L.str633, %r9
	leaq	.L.str630, %r10
	leaq	.L.str631, %r11
	movabsq	$2, %rbx
	movabsq	$64, %r14
	leaq	srand, %r15
	leaq	.L.str628, %r12
	leaq	.L.str629, %r13
	movabsq	$88, %rbp
	movq	%rax, 7024(%rsp)        # 8-byte Spill
	leaq	.L.str625, %rax
	movq	%rax, 7016(%rsp)        # 8-byte Spill
	leaq	.L.str626, %rax
	movq	%rax, 7008(%rsp)        # 8-byte Spill
	leaq	.L.str627, %rax
	movq	%rax, 7000(%rsp)        # 8-byte Spill
	movabsq	$49, %rax
	movq	%rsi, 6992(%rsp)        # 8-byte Spill
	movl	$0, %esi
	movl	%esi, 6988(%rsp)        # 4-byte Spill
	movl	$1, %esi
	movq	%rdi, 6976(%rsp)        # 8-byte Spill
	movq	%rbp, %rdi
	movq	7016(%rsp), %rbp        # 8-byte Reload
	movl	%esi, 6972(%rsp)        # 4-byte Spill
	movq	%rbp, %rsi
	movq	7008(%rsp), %rbp        # 8-byte Reload
	movq	%rdx, 6960(%rsp)        # 8-byte Spill
	movq	%rbp, %rdx
	movq	7000(%rsp), %rbp        # 8-byte Reload
	movq	%rcx, 6952(%rsp)        # 8-byte Spill
	movq	%rbp, %rcx
	movq	%r8, 6944(%rsp)         # 8-byte Spill
	movq	%rax, %r8
	movl	6988(%rsp), %ebp        # 4-byte Reload
	movq	%r9, 6936(%rsp)         # 8-byte Spill
	movl	%ebp, %r9d
	movl	$1, (%rsp)
	movq	%r13, 6928(%rsp)        # 8-byte Spill
	movq	%r14, 6920(%rsp)        # 8-byte Spill
	movq	%r15, 6912(%rsp)        # 8-byte Spill
	movq	%rbx, 6904(%rsp)        # 8-byte Spill
	movq	%r12, 6896(%rsp)        # 8-byte Spill
	movq	%r11, 6888(%rsp)        # 8-byte Spill
	movq	%r10, 6880(%rsp)        # 8-byte Spill
	callq	trace_logger_log0
	movq	6904(%rsp), %rdi        # 8-byte Reload
	movq	6920(%rsp), %rsi        # 8-byte Reload
	movq	6912(%rsp), %rdx        # 8-byte Reload
	movq	6952(%rsp), %rcx        # 8-byte Reload
	movq	6896(%rsp), %r8         # 8-byte Reload
	movq	6960(%rsp), %r9         # 8-byte Reload
	movq	6928(%rsp), %rax        # 8-byte Reload
	movq	%rax, (%rsp)
	callq	trace_logger_log_int
	movq	6952(%rsp), %rdi        # 8-byte Reload
	movq	6992(%rsp), %rsi        # 8-byte Reload
	movq	7024(%rsp), %rdx        # 8-byte Reload
	movq	6960(%rsp), %rcx        # 8-byte Reload
	movq	6880(%rsp), %r8         # 8-byte Reload
	movq	6960(%rsp), %r9         # 8-byte Reload
	movq	6888(%rsp), %rax        # 8-byte Reload
	movq	%rax, (%rsp)
	callq	trace_logger_log_int
	movq	6976(%rsp), %rdi        # 8-byte Reload
	movq	6992(%rsp), %rsi        # 8-byte Reload
	movq	7024(%rsp), %rdx        # 8-byte Reload
	movq	6952(%rsp), %rcx        # 8-byte Reload
	movq	6944(%rsp), %r8         # 8-byte Reload
	movq	6960(%rsp), %r9         # 8-byte Reload
	movq	6936(%rsp), %rax        # 8-byte Reload
	movq	%rax, (%rsp)
	callq	trace_logger_log_int
	movl	$8650341, %edi          # imm = 0x83FE65
	callq	srand
	movabsq	$24601, %rdi            # imm = 0x6019
	movabsq	$64, %rax
	movabsq	$4096, %rcx             # imm = 0x1000
	movabsq	$1, %rdx
	leaq	.L.str641, %r8
	movabsq	$0, %rsi
	leaq	.L.str642, %r9
	leaq	.L.str639, %r10
	leaq	.L.str640, %r11
	movabsq	$2, %rbx
	leaq	malloc, %r14
	leaq	.L.str637, %r15
	leaq	.L.str638, %r12
	movabsq	$91, %r13
	leaq	.L.str634, %rbp
	movq	%rax, 6872(%rsp)        # 8-byte Spill
	leaq	.L.str635, %rax
	movq	%rax, 6864(%rsp)        # 8-byte Spill
	leaq	.L.str636, %rax
	movq	%rax, 6856(%rsp)        # 8-byte Spill
	movabsq	$49, %rax
	movq	%rsi, 6848(%rsp)        # 8-byte Spill
	movl	$0, %esi
	movl	%esi, 6844(%rsp)        # 4-byte Spill
	movl	$1, %esi
.Ltmp79:
	#DEBUG_VALUE: main:max <- 2147483646
	#DEBUG_VALUE: main:min <- 0
	.loc	1 91 0                  # stencil.c:91:0
	movq	%rdi, 6832(%rsp)        # 8-byte Spill
	movq	%r13, %rdi
	movl	%esi, 6828(%rsp)        # 4-byte Spill
	movq	%rbp, %rsi
	movq	6864(%rsp), %r13        # 8-byte Reload
	movq	%rdx, 6816(%rsp)        # 8-byte Spill
	movq	%r13, %rdx
	movq	6856(%rsp), %rbp        # 8-byte Reload
	movq	%rcx, 6808(%rsp)        # 8-byte Spill
	movq	%rbp, %rcx
	movq	%r8, 6800(%rsp)         # 8-byte Spill
	movq	%rax, %r8
	movl	6844(%rsp), %ebp        # 4-byte Reload
	movq	%r9, 6792(%rsp)         # 8-byte Spill
	movl	%ebp, %r9d
	movl	$1, (%rsp)
	movq	%r12, 6784(%rsp)        # 8-byte Spill
	movq	%r14, 6776(%rsp)        # 8-byte Spill
	movq	%rbx, 6768(%rsp)        # 8-byte Spill
	movq	%r15, 6760(%rsp)        # 8-byte Spill
	movq	%r11, 6752(%rsp)        # 8-byte Spill
	movq	%r10, 6744(%rsp)        # 8-byte Spill
	callq	trace_logger_log0
	movq	6768(%rsp), %rdi        # 8-byte Reload
	movq	6872(%rsp), %rsi        # 8-byte Reload
	movq	6776(%rsp), %rdx        # 8-byte Reload
	movq	6816(%rsp), %rcx        # 8-byte Reload
	movq	6760(%rsp), %r8         # 8-byte Reload
	movq	6848(%rsp), %r9         # 8-byte Reload
	movq	6784(%rsp), %rax        # 8-byte Reload
	movq	%rax, (%rsp)
	callq	trace_logger_log_int
	movq	6816(%rsp), %rdi        # 8-byte Reload
	movq	6872(%rsp), %rsi        # 8-byte Reload
	movq	6808(%rsp), %rdx        # 8-byte Reload
	movq	6848(%rsp), %rcx        # 8-byte Reload
	movq	6744(%rsp), %r8         # 8-byte Reload
	movq	6848(%rsp), %r9         # 8-byte Reload
	movq	6752(%rsp), %rax        # 8-byte Reload
	movq	%rax, (%rsp)
	callq	trace_logger_log_int
	movq	6832(%rsp), %rdi        # 8-byte Reload
	movq	6872(%rsp), %rsi        # 8-byte Reload
	movq	6808(%rsp), %rdx        # 8-byte Reload
	movq	6816(%rsp), %rcx        # 8-byte Reload
	movq	6800(%rsp), %r8         # 8-byte Reload
	movq	6848(%rsp), %r9         # 8-byte Reload
	movq	6792(%rsp), %rax        # 8-byte Reload
	movq	%rax, (%rsp)
	callq	trace_logger_log_int
	movl	$4096, %ebp             # imm = 0x1000
	movl	%ebp, %edi
	callq	malloc
	movabsq	$24601, %rdi            # imm = 0x6019
	movabsq	$64, %rcx
	movabsq	$4096, %rdx             # imm = 0x1000
	movabsq	$1, %rsi
	leaq	.L.str659, %r8
	movabsq	$0, %r9
	leaq	.L.str660, %r10
	leaq	.L.str657, %r11
	leaq	.L.str658, %rbx
	movabsq	$2, %r14
	leaq	malloc, %r15
	leaq	.L.str655, %r12
	leaq	.L.str656, %r13
	movabsq	$92, %rbp
	movq	%rax, 6736(%rsp)        # 8-byte Spill
	leaq	.L.str652, %rax
	movq	%rax, 6728(%rsp)        # 8-byte Spill
	leaq	.L.str653, %rax
	movq	%rax, 6720(%rsp)        # 8-byte Spill
	leaq	.L.str654, %rax
	movq	%rax, 6712(%rsp)        # 8-byte Spill
	movabsq	$49, %rax
	movq	%rsi, 6704(%rsp)        # 8-byte Spill
	movl	$0, %esi
	movl	%esi, 6700(%rsp)        # 4-byte Spill
	movl	$1, %esi
	movq	%rax, 6688(%rsp)        # 8-byte Spill
	movabsq	$19134, %rax            # imm = 0x4ABE
	movq	%rax, 6680(%rsp)        # 8-byte Spill
	leaq	.L.str650, %rax
	movq	%rax, 6672(%rsp)        # 8-byte Spill
	leaq	.L.str651, %rax
	movq	%rax, 6664(%rsp)        # 8-byte Spill
	leaq	.L.str648, %rax
	movq	%rax, 6656(%rsp)        # 8-byte Spill
	leaq	.L.str649, %rax
	movq	%rax, 6648(%rsp)        # 8-byte Spill
	movabsq	$91, %rax
	movq	%rax, 6640(%rsp)        # 8-byte Spill
	leaq	.L.str645, %rax
	movq	%rax, 6632(%rsp)        # 8-byte Spill
	leaq	.L.str646, %rax
	movq	%rax, 6624(%rsp)        # 8-byte Spill
	leaq	.L.str647, %rax
	movq	%rax, 6616(%rsp)        # 8-byte Spill
	movabsq	$44, %rax
	movq	%rax, 6608(%rsp)        # 8-byte Spill
	leaq	.L.str643, %rax
	movq	%rax, 6600(%rsp)        # 8-byte Spill
	leaq	.L.str644, %rax
	movq	%rax, 6592(%rsp)        # 8-byte Spill
	movq	6680(%rsp), %rax        # 8-byte Reload
	movq	%rdi, 6584(%rsp)        # 8-byte Spill
	movq	%rax, %rdi
	movl	%esi, 6580(%rsp)        # 4-byte Spill
	movq	%rcx, %rsi
	movq	6736(%rsp), %rax        # 8-byte Reload
	movq	%rdx, 6568(%rsp)        # 8-byte Spill
	movq	%rax, %rdx
	movq	6704(%rsp), %rax        # 8-byte Reload
	movq	%rcx, 6560(%rsp)        # 8-byte Spill
	movq	%rax, %rcx
	movq	6600(%rsp), %rax        # 8-byte Reload
	movq	%r8, 6552(%rsp)         # 8-byte Spill
	movq	%rax, %r8
	movq	%r9, 6544(%rsp)         # 8-byte Spill
	movq	6592(%rsp), %rax        # 8-byte Reload
	movq	%rax, (%rsp)
	movq	%rbp, 6536(%rsp)        # 8-byte Spill
	movq	%r15, 6528(%rsp)        # 8-byte Spill
	movq	%r12, 6520(%rsp)        # 8-byte Spill
	movq	%r13, 6512(%rsp)        # 8-byte Spill
	movq	%r14, 6504(%rsp)        # 8-byte Spill
	movq	%rbx, 6496(%rsp)        # 8-byte Spill
	movq	%r10, 6488(%rsp)        # 8-byte Spill
	movq	%r11, 6480(%rsp)        # 8-byte Spill
	callq	trace_logger_log_int
	movq	6640(%rsp), %rdi        # 8-byte Reload
	movq	6632(%rsp), %rsi        # 8-byte Reload
	movq	6624(%rsp), %rdx        # 8-byte Reload
	movq	6616(%rsp), %rcx        # 8-byte Reload
	movq	6608(%rsp), %r8         # 8-byte Reload
	movl	6700(%rsp), %r9d        # 4-byte Reload
	movl	$1, (%rsp)
	callq	trace_logger_log0
	movq	6704(%rsp), %rdi        # 8-byte Reload
	movq	6560(%rsp), %rsi        # 8-byte Reload
	movq	6736(%rsp), %rdx        # 8-byte Reload
	movq	6704(%rsp), %rcx        # 8-byte Reload
	movq	6656(%rsp), %r8         # 8-byte Reload
	movq	6544(%rsp), %r9         # 8-byte Reload
	movq	6648(%rsp), %rax        # 8-byte Reload
	movq	%rax, (%rsp)
	callq	trace_logger_log_int
	movq	6736(%rsp), %rax        # 8-byte Reload
	movq	6680(%rsp), %rdi        # 8-byte Reload
	movq	6560(%rsp), %rsi        # 8-byte Reload
	movq	%rax, %rdx
	movq	6704(%rsp), %rcx        # 8-byte Reload
	movq	6672(%rsp), %r8         # 8-byte Reload
	movq	6544(%rsp), %r9         # 8-byte Reload
	movq	6664(%rsp), %r10        # 8-byte Reload
	movq	%r10, (%rsp)
	movq	%rax, 6472(%rsp)        # 8-byte Spill
	callq	trace_logger_log_int
.Ltmp80:
	#DEBUG_VALUE: main:OrigImg <- [RSP+6472]
	.loc	1 92 0                  # stencil.c:92:0
	movq	6536(%rsp), %rdi        # 8-byte Reload
	movq	6728(%rsp), %rsi        # 8-byte Reload
	movq	6720(%rsp), %rdx        # 8-byte Reload
	movq	6712(%rsp), %rcx        # 8-byte Reload
	movq	6688(%rsp), %r8         # 8-byte Reload
	movl	6700(%rsp), %r9d        # 4-byte Reload
	movl	$1, (%rsp)
	callq	trace_logger_log0
	movq	6504(%rsp), %rdi        # 8-byte Reload
	movq	6560(%rsp), %rsi        # 8-byte Reload
	movq	6528(%rsp), %rdx        # 8-byte Reload
	movq	6704(%rsp), %rcx        # 8-byte Reload
	movq	6520(%rsp), %r8         # 8-byte Reload
	movq	6544(%rsp), %r9         # 8-byte Reload
	movq	6512(%rsp), %rax        # 8-byte Reload
	movq	%rax, (%rsp)
	callq	trace_logger_log_int
	movq	6704(%rsp), %rdi        # 8-byte Reload
	movq	6560(%rsp), %rsi        # 8-byte Reload
	movq	6568(%rsp), %rdx        # 8-byte Reload
	movq	6544(%rsp), %rcx        # 8-byte Reload
	movq	6480(%rsp), %r8         # 8-byte Reload
	movq	6544(%rsp), %r9         # 8-byte Reload
	movq	6496(%rsp), %rax        # 8-byte Reload
	movq	%rax, (%rsp)
	callq	trace_logger_log_int
	movq	6584(%rsp), %rdi        # 8-byte Reload
	movq	6560(%rsp), %rsi        # 8-byte Reload
	movq	6568(%rsp), %rdx        # 8-byte Reload
	movq	6704(%rsp), %rcx        # 8-byte Reload
	movq	6552(%rsp), %r8         # 8-byte Reload
	movq	6544(%rsp), %r9         # 8-byte Reload
	movq	6488(%rsp), %rax        # 8-byte Reload
	movq	%rax, (%rsp)
	callq	trace_logger_log_int
	movl	$4096, %esi             # imm = 0x1000
	movl	%esi, %edi
	callq	malloc
.Ltmp81:
	movabsq	$24601, %rdi            # imm = 0x6019
	movabsq	$64, %rcx
	movabsq	$36, %rdx
	movabsq	$1, %r8
	leaq	.L.str677, %r9
	movabsq	$0, %r10
	leaq	.L.str678, %r11
	leaq	.L.str675, %rbx
	leaq	.L.str676, %r14
	movabsq	$2, %r15
	leaq	malloc, %r12
	leaq	.L.str673, %r13
	leaq	.L.str674, %rbp
	movabsq	$93, %rsi
	movq	%rax, 6464(%rsp)        # 8-byte Spill
	leaq	.L.str670, %rax
	movq	%rax, 6456(%rsp)        # 8-byte Spill
	leaq	.L.str671, %rax
	movq	%rax, 6448(%rsp)        # 8-byte Spill
	leaq	.L.str672, %rax
	movq	%rax, 6440(%rsp)        # 8-byte Spill
	movabsq	$49, %rax
	movq	%rsi, 6432(%rsp)        # 8-byte Spill
	movl	$0, %esi
	movl	%esi, 6428(%rsp)        # 4-byte Spill
	movl	$1, %esi
	movq	%rax, 6416(%rsp)        # 8-byte Spill
	movabsq	$19134, %rax            # imm = 0x4ABE
	movq	%rax, 6408(%rsp)        # 8-byte Spill
	leaq	.L.str668, %rax
	movq	%rax, 6400(%rsp)        # 8-byte Spill
	leaq	.L.str669, %rax
	movq	%rax, 6392(%rsp)        # 8-byte Spill
	leaq	.L.str666, %rax
	movq	%rax, 6384(%rsp)        # 8-byte Spill
	leaq	.L.str667, %rax
	movq	%rax, 6376(%rsp)        # 8-byte Spill
	movabsq	$92, %rax
	movq	%rax, 6368(%rsp)        # 8-byte Spill
	leaq	.L.str663, %rax
	movq	%rax, 6360(%rsp)        # 8-byte Spill
	leaq	.L.str664, %rax
	movq	%rax, 6352(%rsp)        # 8-byte Spill
	leaq	.L.str665, %rax
	movq	%rax, 6344(%rsp)        # 8-byte Spill
	movabsq	$44, %rax
	movq	%rax, 6336(%rsp)        # 8-byte Spill
	leaq	.L.str661, %rax
	movq	%rax, 6328(%rsp)        # 8-byte Spill
	leaq	.L.str662, %rax
	movq	%rax, 6320(%rsp)        # 8-byte Spill
	movq	6408(%rsp), %rax        # 8-byte Reload
	movq	%rdi, 6312(%rsp)        # 8-byte Spill
	movq	%rax, %rdi
	movl	%esi, 6308(%rsp)        # 4-byte Spill
	movq	%rcx, %rsi
	movq	6464(%rsp), %rax        # 8-byte Reload
	movq	%rdx, 6296(%rsp)        # 8-byte Spill
	movq	%rax, %rdx
	movq	%rcx, 6288(%rsp)        # 8-byte Spill
	movq	%r8, %rcx
	movq	6328(%rsp), %rax        # 8-byte Reload
	movq	%r8, 6280(%rsp)         # 8-byte Spill
	movq	%rax, %r8
	movq	%r9, 6272(%rsp)         # 8-byte Spill
	movq	%r10, %r9
	movq	6320(%rsp), %rax        # 8-byte Reload
	movq	%rax, (%rsp)
	movq	%rbp, 6264(%rsp)        # 8-byte Spill
	movq	%r12, 6256(%rsp)        # 8-byte Spill
	movq	%r13, 6248(%rsp)        # 8-byte Spill
	movq	%r15, 6240(%rsp)        # 8-byte Spill
	movq	%r14, 6232(%rsp)        # 8-byte Spill
	movq	%r10, 6224(%rsp)        # 8-byte Spill
	movq	%r11, 6216(%rsp)        # 8-byte Spill
	movq	%rbx, 6208(%rsp)        # 8-byte Spill
	callq	trace_logger_log_int
	movq	6368(%rsp), %rdi        # 8-byte Reload
	movq	6360(%rsp), %rsi        # 8-byte Reload
	movq	6352(%rsp), %rdx        # 8-byte Reload
	movq	6344(%rsp), %rcx        # 8-byte Reload
	movq	6336(%rsp), %r8         # 8-byte Reload
	movl	6428(%rsp), %r9d        # 4-byte Reload
	movl	$1, (%rsp)
	callq	trace_logger_log0
	movq	6280(%rsp), %rdi        # 8-byte Reload
	movq	6288(%rsp), %rsi        # 8-byte Reload
	movq	6464(%rsp), %rdx        # 8-byte Reload
	movq	6280(%rsp), %rcx        # 8-byte Reload
	movq	6384(%rsp), %r8         # 8-byte Reload
	movq	6224(%rsp), %r9         # 8-byte Reload
	movq	6376(%rsp), %rax        # 8-byte Reload
	movq	%rax, (%rsp)
	callq	trace_logger_log_int
	movq	6464(%rsp), %rax        # 8-byte Reload
	movq	6408(%rsp), %rdi        # 8-byte Reload
	movq	6288(%rsp), %rsi        # 8-byte Reload
	movq	%rax, %rdx
	movq	6280(%rsp), %rcx        # 8-byte Reload
	movq	6400(%rsp), %r8         # 8-byte Reload
	movq	6224(%rsp), %r9         # 8-byte Reload
	movq	6392(%rsp), %r10        # 8-byte Reload
	movq	%r10, (%rsp)
	movq	%rax, 6200(%rsp)        # 8-byte Spill
	callq	trace_logger_log_int
.Ltmp82:
	#DEBUG_VALUE: main:Solution <- [RSP+6200]
	.loc	1 93 0                  # stencil.c:93:0
	movq	6432(%rsp), %rdi        # 8-byte Reload
	movq	6456(%rsp), %rsi        # 8-byte Reload
	movq	6448(%rsp), %rdx        # 8-byte Reload
	movq	6440(%rsp), %rcx        # 8-byte Reload
	movq	6416(%rsp), %r8         # 8-byte Reload
	movl	6428(%rsp), %r9d        # 4-byte Reload
	movl	$1, (%rsp)
	callq	trace_logger_log0
	movq	6240(%rsp), %rdi        # 8-byte Reload
	movq	6288(%rsp), %rsi        # 8-byte Reload
	movq	6256(%rsp), %rdx        # 8-byte Reload
	movq	6280(%rsp), %rcx        # 8-byte Reload
	movq	6248(%rsp), %r8         # 8-byte Reload
	movq	6224(%rsp), %r9         # 8-byte Reload
	movq	6264(%rsp), %rax        # 8-byte Reload
	movq	%rax, (%rsp)
	callq	trace_logger_log_int
	movq	6280(%rsp), %rdi        # 8-byte Reload
	movq	6288(%rsp), %rsi        # 8-byte Reload
	movq	6296(%rsp), %rdx        # 8-byte Reload
	movq	6224(%rsp), %rcx        # 8-byte Reload
	movq	6208(%rsp), %r8         # 8-byte Reload
	movq	6224(%rsp), %r9         # 8-byte Reload
	movq	6232(%rsp), %rax        # 8-byte Reload
	movq	%rax, (%rsp)
	callq	trace_logger_log_int
	movq	6312(%rsp), %rdi        # 8-byte Reload
	movq	6288(%rsp), %rsi        # 8-byte Reload
	movq	6296(%rsp), %rdx        # 8-byte Reload
	movq	6280(%rsp), %rcx        # 8-byte Reload
	movq	6272(%rsp), %r8         # 8-byte Reload
	movq	6224(%rsp), %r9         # 8-byte Reload
	movq	6216(%rsp), %rax        # 8-byte Reload
	movq	%rax, (%rsp)
	callq	trace_logger_log_int
	movl	$36, %esi
	movl	%esi, %edi
	callq	malloc
.Ltmp83:
	movabsq	$0, %rcx
	movabsq	$1, %rdx
	leaq	.L.str684, %r8
	leaq	.L.str685, %rdi
	movabsq	$94, %r9
	leaq	.L.str681, %rsi
	leaq	.L.str682, %r10
	leaq	.L.str683, %r11
	movabsq	$2, %rbx
	movl	$0, %ebp
	movl	$1, %r14d
	movabsq	$19134, %r15            # imm = 0x4ABE
	movabsq	$64, %r12
	leaq	.L.str679, %r13
	movq	%rax, 6192(%rsp)        # 8-byte Spill
	leaq	.L.str680, %rax
	movq	%rdi, 6184(%rsp)        # 8-byte Spill
	movq	%r15, %rdi
	movq	%rsi, 6176(%rsp)        # 8-byte Spill
	movq	%r12, %rsi
	movq	6192(%rsp), %r15        # 8-byte Reload
	movq	%rdx, 6168(%rsp)        # 8-byte Spill
	movq	%r15, %rdx
	movq	6168(%rsp), %r12        # 8-byte Reload
	movq	%rcx, 6160(%rsp)        # 8-byte Spill
	movq	%r12, %rcx
	movq	%r8, 6152(%rsp)         # 8-byte Spill
	movq	%r13, %r8
	movq	6160(%rsp), %r13        # 8-byte Reload
	movq	%r9, 6144(%rsp)         # 8-byte Spill
	movq	%r13, %r9
	movq	%rax, (%rsp)
	movq	%r11, 6136(%rsp)        # 8-byte Spill
	movq	%rbx, 6128(%rsp)        # 8-byte Spill
	movl	%ebp, 6124(%rsp)        # 4-byte Spill
	movl	%r14d, 6120(%rsp)       # 4-byte Spill
	movq	%r10, 6112(%rsp)        # 8-byte Spill
	callq	trace_logger_log_int
.Ltmp84:
	#DEBUG_VALUE: main:Filter <- undef
	#DEBUG_VALUE: main:i <- 0
	.loc	1 94 0                  # stencil.c:94:0
	movq	6144(%rsp), %rdi        # 8-byte Reload
	movq	6176(%rsp), %rsi        # 8-byte Reload
	movq	6112(%rsp), %rdx        # 8-byte Reload
	movq	6136(%rsp), %rcx        # 8-byte Reload
	movq	6128(%rsp), %r8         # 8-byte Reload
	movl	6124(%rsp), %r9d        # 4-byte Reload
	movl	$1, (%rsp)
	callq	trace_logger_log0
	movq	6168(%rsp), %rdi        # 8-byte Reload
	movq	6160(%rsp), %rsi        # 8-byte Reload
	movq	6160(%rsp), %rdx        # 8-byte Reload
	movq	6168(%rsp), %rcx        # 8-byte Reload
	movq	6152(%rsp), %r8         # 8-byte Reload
	movq	6160(%rsp), %r9         # 8-byte Reload
	movq	6184(%rsp), %rax        # 8-byte Reload
	movq	%rax, (%rsp)
	callq	trace_logger_log_int
	movq	6160(%rsp), %rax        # 8-byte Reload
	movq	%rax, 6104(%rsp)        # 8-byte Spill
.Ltmp85:
.LBB1_1:                                # %.preheader7
                                        # =>This Loop Header: Depth=1
                                        #     Child Loop BB1_3 Depth 2
	movq	6104(%rsp), %rax        # 8-byte Reload
	movabsq	$0, %rcx
	movabsq	$1, %rdx
	leaq	.L.str707, %r8
	leaq	.L.str708, %rsi
	movabsq	$96, %rdi
	leaq	.L.str704, %r9
	leaq	.L.str705, %r10
	leaq	.L.str706, %r11
	movabsq	$2, %rbx
	movl	$0, %ebp
	movl	$1, %r14d
	movabsq	$19134, %r15            # imm = 0x4ABE
	movabsq	$64, %r12
	leaq	.L.str702, %r13
	movq	%rax, 6096(%rsp)        # 8-byte Spill
	leaq	.L.str703, %rax
	movq	%rax, 6088(%rsp)        # 8-byte Spill
	leaq	.L.str700, %rax
	movq	%rax, 6080(%rsp)        # 8-byte Spill
	leaq	.L.str701, %rax
	movq	%rax, 6072(%rsp)        # 8-byte Spill
	movabsq	$5, %rax
	movq	%rax, 6064(%rsp)        # 8-byte Spill
	leaq	.L.str698, %rax
	movq	%rax, 6056(%rsp)        # 8-byte Spill
	leaq	.L.str699, %rax
	movq	%rax, 6048(%rsp)        # 8-byte Spill
	movabsq	$98, %rax
	movq	%rax, 6040(%rsp)        # 8-byte Spill
	leaq	.L.str695, %rax
	movq	%rax, 6032(%rsp)        # 8-byte Spill
	leaq	.L.str696, %rax
	movq	%rax, 6024(%rsp)        # 8-byte Spill
	leaq	.L.str697, %rax
	movq	%rax, 6016(%rsp)        # 8-byte Spill
	movabsq	$20, %rax
	movq	%rax, 6008(%rsp)        # 8-byte Spill
	leaq	.L.str693, %rax
	movq	%rax, 6000(%rsp)        # 8-byte Spill
	leaq	.L.str694, %rax
	movq	%rax, 5992(%rsp)        # 8-byte Spill
	leaq	.L.str691, %rax
	movq	%rax, 5984(%rsp)        # 8-byte Spill
	leaq	.L.str692, %rax
	movq	%rax, 5976(%rsp)        # 8-byte Spill
	leaq	.L.str689, %rax
	movq	%rax, 5968(%rsp)        # 8-byte Spill
	leaq	.L.str690, %rax
	movq	%rax, 5960(%rsp)        # 8-byte Spill
	movabsq	$-1, %rax
	movq	%rax, 5952(%rsp)        # 8-byte Spill
	leaq	.L.str686, %rax
	movq	%rax, 5944(%rsp)        # 8-byte Spill
	leaq	.L.str687, %rax
	movq	%rax, 5936(%rsp)        # 8-byte Spill
	leaq	.L.str688, %rax
	movq	%rax, 5928(%rsp)        # 8-byte Spill
	movabsq	$48, %rax
	.loc	1 98 0                  # stencil.c:98:0
.Ltmp86:
	movq	%rax, 5920(%rsp)        # 8-byte Spill
	movq	5952(%rsp), %rax        # 8-byte Reload
	movq	%rdi, 5912(%rsp)        # 8-byte Spill
	movq	%rax, %rdi
	movq	5944(%rsp), %rax        # 8-byte Reload
	movq	%rsi, 5904(%rsp)        # 8-byte Spill
	movq	%rax, %rsi
	movq	5936(%rsp), %rax        # 8-byte Reload
	movq	%rdx, 5896(%rsp)        # 8-byte Spill
	movq	%rax, %rdx
	movq	5928(%rsp), %rax        # 8-byte Reload
	movq	%rcx, 5888(%rsp)        # 8-byte Spill
	movq	%rax, %rcx
	movq	5920(%rsp), %rax        # 8-byte Reload
	movq	%r8, 5880(%rsp)         # 8-byte Spill
	movq	%rax, %r8
	movq	%r9, 5872(%rsp)         # 8-byte Spill
	movl	%ebp, %r9d
	movl	$1, (%rsp)
	movl	%r14d, 5868(%rsp)       # 4-byte Spill
	movq	%r15, 5856(%rsp)        # 8-byte Spill
	movl	%ebp, 5852(%rsp)        # 4-byte Spill
	movq	%r12, 5840(%rsp)        # 8-byte Spill
	movq	%r13, 5832(%rsp)        # 8-byte Spill
	movq	%rbx, 5824(%rsp)        # 8-byte Spill
	movq	%r10, 5816(%rsp)        # 8-byte Spill
	movq	%r11, 5808(%rsp)        # 8-byte Spill
	callq	trace_logger_log0
	movq	5824(%rsp), %rdi        # 8-byte Reload
	movq	5840(%rsp), %rsi        # 8-byte Reload
	movq	5888(%rsp), %rdx        # 8-byte Reload
	movq	5896(%rsp), %rcx        # 8-byte Reload
	movq	5968(%rsp), %r8         # 8-byte Reload
	movq	5896(%rsp), %r9         # 8-byte Reload
	movq	5960(%rsp), %rax        # 8-byte Reload
	movq	%rax, (%rsp)
	callq	trace_logger_log_int
	movq	5896(%rsp), %rdi        # 8-byte Reload
	movq	5840(%rsp), %rsi        # 8-byte Reload
	movq	5888(%rsp), %rdx        # 8-byte Reload
	movq	5888(%rsp), %rcx        # 8-byte Reload
	movq	5984(%rsp), %r8         # 8-byte Reload
	movq	5896(%rsp), %r9         # 8-byte Reload
	movq	5976(%rsp), %rax        # 8-byte Reload
	movq	%rax, (%rsp)
	callq	trace_logger_log_int
	movq	5856(%rsp), %rdi        # 8-byte Reload
	movq	5840(%rsp), %rsi        # 8-byte Reload
	movq	6096(%rsp), %rdx        # 8-byte Reload
	movq	5896(%rsp), %rcx        # 8-byte Reload
	movq	6000(%rsp), %r8         # 8-byte Reload
	movq	5888(%rsp), %r9         # 8-byte Reload
	movq	5992(%rsp), %rax        # 8-byte Reload
	movq	%rax, (%rsp)
	callq	trace_logger_log_int
	movq	6040(%rsp), %rdi        # 8-byte Reload
	movq	6032(%rsp), %rsi        # 8-byte Reload
	movq	6024(%rsp), %rdx        # 8-byte Reload
	movq	6016(%rsp), %rcx        # 8-byte Reload
	movq	6008(%rsp), %r8         # 8-byte Reload
	movl	5852(%rsp), %r9d        # 4-byte Reload
	movl	$1, (%rsp)
	callq	trace_logger_log0
	movq	5824(%rsp), %rdi        # 8-byte Reload
	movq	5840(%rsp), %rsi        # 8-byte Reload
	movq	6064(%rsp), %rdx        # 8-byte Reload
	movq	5888(%rsp), %rcx        # 8-byte Reload
	movq	6056(%rsp), %r8         # 8-byte Reload
	movq	5888(%rsp), %r9         # 8-byte Reload
	movq	6048(%rsp), %rax        # 8-byte Reload
	movq	%rax, (%rsp)
	callq	trace_logger_log_int
	movq	5896(%rsp), %rdi        # 8-byte Reload
	movq	5840(%rsp), %rsi        # 8-byte Reload
	movq	6096(%rsp), %rdx        # 8-byte Reload
	movq	5896(%rsp), %rcx        # 8-byte Reload
	movq	6080(%rsp), %r8         # 8-byte Reload
	movq	5888(%rsp), %r9         # 8-byte Reload
	movq	6072(%rsp), %rax        # 8-byte Reload
	movq	%rax, (%rsp)
	callq	trace_logger_log_int
	movq	6096(%rsp), %rax        # 8-byte Reload
	shlq	$5, %rax
.Ltmp87:
	.loc	1 96 0                  # stencil.c:96:0
	movq	5856(%rsp), %rdi        # 8-byte Reload
	movq	5840(%rsp), %rsi        # 8-byte Reload
	movq	%rax, %rdx
	movq	5896(%rsp), %rcx        # 8-byte Reload
	movq	5832(%rsp), %r8         # 8-byte Reload
	movq	5888(%rsp), %r9         # 8-byte Reload
	movq	6088(%rsp), %r10        # 8-byte Reload
	movq	%r10, (%rsp)
	movq	%rax, 5800(%rsp)        # 8-byte Spill
	callq	trace_logger_log_int
	movq	5912(%rsp), %rdi        # 8-byte Reload
	movq	5872(%rsp), %rsi        # 8-byte Reload
	movq	5816(%rsp), %rdx        # 8-byte Reload
	movq	5808(%rsp), %rcx        # 8-byte Reload
	movq	5824(%rsp), %r8         # 8-byte Reload
	movl	5852(%rsp), %r9d        # 4-byte Reload
	movl	$1, (%rsp)
	callq	trace_logger_log0
	movq	5896(%rsp), %rdi        # 8-byte Reload
	movq	5888(%rsp), %rsi        # 8-byte Reload
	movq	5888(%rsp), %rdx        # 8-byte Reload
	movq	5896(%rsp), %rcx        # 8-byte Reload
	movq	5880(%rsp), %r8         # 8-byte Reload
	movq	5888(%rsp), %r9         # 8-byte Reload
	movq	5904(%rsp), %rax        # 8-byte Reload
	movq	%rax, (%rsp)
	callq	trace_logger_log_int
	movq	5888(%rsp), %rax        # 8-byte Reload
	movq	%rax, 5792(%rsp)        # 8-byte Spill
	jmp	.LBB1_3
.Ltmp88:
.LBB1_2:                                # %.preheader5
	movabsq	$0, %rax
	movabsq	$1, %rcx
	leaq	.L.str719, %r8
	leaq	.L.str720, %rdx
	movabsq	$104, %rdi
	leaq	.L.str716, %rsi
	leaq	.L.str717, %r9
	leaq	.L.str718, %r10
	movabsq	$2, %r11
	movl	$0, %ebx
	movl	$1, %ebp
	movabsq	$19134, %r14            # imm = 0x4ABE
	movabsq	$64, %r15
	leaq	.L.str714, %r12
	leaq	.L.str715, %r13
	movq	%rax, 5784(%rsp)        # 8-byte Spill
	leaq	.L.str712, %rax
	movq	%rax, 5776(%rsp)        # 8-byte Spill
	leaq	.L.str713, %rax
	movq	%rax, 5768(%rsp)        # 8-byte Spill
	movabsq	$93, %rax
	movq	%rax, 5760(%rsp)        # 8-byte Spill
	leaq	.L.str709, %rax
	movq	%rax, 5752(%rsp)        # 8-byte Spill
	leaq	.L.str710, %rax
	movq	%rax, 5744(%rsp)        # 8-byte Spill
	leaq	.L.str711, %rax
	movq	%rax, 5736(%rsp)        # 8-byte Spill
	movabsq	$44, %rax
	.loc	1 93 0                  # stencil.c:93:0
	movq	%rax, 5728(%rsp)        # 8-byte Spill
	movq	5760(%rsp), %rax        # 8-byte Reload
	movq	%rdi, 5720(%rsp)        # 8-byte Spill
	movq	%rax, %rdi
	movq	5752(%rsp), %rax        # 8-byte Reload
	movq	%rsi, 5712(%rsp)        # 8-byte Spill
	movq	%rax, %rsi
	movq	5744(%rsp), %rax        # 8-byte Reload
	movq	%rdx, 5704(%rsp)        # 8-byte Spill
	movq	%rax, %rdx
	movq	5736(%rsp), %rax        # 8-byte Reload
	movq	%rcx, 5696(%rsp)        # 8-byte Spill
	movq	%rax, %rcx
	movq	5728(%rsp), %rax        # 8-byte Reload
	movq	%r8, 5688(%rsp)         # 8-byte Spill
	movq	%rax, %r8
	movq	%r9, 5680(%rsp)         # 8-byte Spill
	movl	%ebx, %r9d
	movl	$1, (%rsp)
	movq	%r14, 5672(%rsp)        # 8-byte Spill
	movl	%ebp, 5668(%rsp)        # 4-byte Spill
	movq	%r15, 5656(%rsp)        # 8-byte Spill
	movq	%r13, 5648(%rsp)        # 8-byte Spill
	movq	%r12, 5640(%rsp)        # 8-byte Spill
	movl	%ebx, 5636(%rsp)        # 4-byte Spill
	movq	%r10, 5624(%rsp)        # 8-byte Spill
	movq	%r11, 5616(%rsp)        # 8-byte Spill
	callq	trace_logger_log0
	movq	5696(%rsp), %rdi        # 8-byte Reload
	movq	5656(%rsp), %rsi        # 8-byte Reload
	movq	6192(%rsp), %rdx        # 8-byte Reload
	movq	5696(%rsp), %rcx        # 8-byte Reload
	movq	5776(%rsp), %r8         # 8-byte Reload
	movq	5784(%rsp), %r9         # 8-byte Reload
	movq	5768(%rsp), %rax        # 8-byte Reload
	movq	%rax, (%rsp)
	callq	trace_logger_log_int
	movq	6192(%rsp), %rax        # 8-byte Reload
	.loc	1 104 0                 # stencil.c:104:0
.Ltmp89:
	movq	5672(%rsp), %rdi        # 8-byte Reload
	movq	5656(%rsp), %rsi        # 8-byte Reload
	movq	%rax, %rdx
	movq	5696(%rsp), %rcx        # 8-byte Reload
	movq	5640(%rsp), %r8         # 8-byte Reload
	movq	5784(%rsp), %r9         # 8-byte Reload
	movq	5648(%rsp), %r10        # 8-byte Reload
	movq	%r10, (%rsp)
	movq	%rax, 5608(%rsp)        # 8-byte Spill
.Ltmp90:
	#DEBUG_VALUE: main:Filter <- [RSP+5608]
	callq	trace_logger_log_int
	movq	5720(%rsp), %rdi        # 8-byte Reload
	movq	5712(%rsp), %rsi        # 8-byte Reload
	movq	5680(%rsp), %rdx        # 8-byte Reload
	movq	5624(%rsp), %rcx        # 8-byte Reload
	movq	5616(%rsp), %r8         # 8-byte Reload
	movl	5636(%rsp), %r9d        # 4-byte Reload
	movl	$1, (%rsp)
	callq	trace_logger_log0
	movq	5696(%rsp), %rdi        # 8-byte Reload
	movq	5784(%rsp), %rsi        # 8-byte Reload
	movq	5784(%rsp), %rdx        # 8-byte Reload
	movq	5696(%rsp), %rcx        # 8-byte Reload
	movq	5688(%rsp), %r8         # 8-byte Reload
	movq	5784(%rsp), %r9         # 8-byte Reload
	movq	5704(%rsp), %rax        # 8-byte Reload
	movq	%rax, (%rsp)
	callq	trace_logger_log_int
	movq	5784(%rsp), %rax        # 8-byte Reload
	movq	%rax, 5600(%rsp)        # 8-byte Spill
	jmp	.LBB1_5
.Ltmp91:
.LBB1_3:                                #   Parent Loop BB1_1 Depth=1
                                        # =>  This Inner Loop Header: Depth=2
	movq	5792(%rsp), %rax        # 8-byte Reload
	movabsq	$1, %rcx
	leaq	.L.str844, %r8
	movabsq	$0, %rdx
	leaq	.L.str845, %rsi
	movabsq	$2, %rdi
	leaq	.L.str842, %r9
	leaq	.L.str843, %r10
	movabsq	$3, %r11
	leaq	.L.str840, %rbx
	leaq	.L.str841, %r14
	movabsq	$96, %r15
	leaq	.L.str837, %r12
	leaq	.L.str838, %r13
	leaq	.L.str839, %rbp
	movq	%rsi, 5592(%rsp)        # 8-byte Spill
	movl	$0, %esi
	movl	%esi, 5588(%rsp)        # 4-byte Spill
	movl	$1, %esi
	movq	%rax, 5576(%rsp)        # 8-byte Spill
	movabsq	$19134, %rax            # imm = 0x4ABE
	movq	%rax, 5568(%rsp)        # 8-byte Spill
	leaq	.L.str835, %rax
	movq	%rax, 5560(%rsp)        # 8-byte Spill
	leaq	.L.str836, %rax
	movq	%rax, 5552(%rsp)        # 8-byte Spill
	movabsq	$64, %rax
	movq	%rax, 5544(%rsp)        # 8-byte Spill
	leaq	.L.str833, %rax
	movq	%rax, 5536(%rsp)        # 8-byte Spill
	leaq	.L.str834, %rax
	movq	%rax, 5528(%rsp)        # 8-byte Spill
	movabsq	$32, %rax
	movq	%rax, 5520(%rsp)        # 8-byte Spill
	leaq	.L.str831, %rax
	movq	%rax, 5512(%rsp)        # 8-byte Spill
	leaq	.L.str832, %rax
	movq	%rax, 5504(%rsp)        # 8-byte Spill
	leaq	.L.str828, %rax
	movq	%rax, 5496(%rsp)        # 8-byte Spill
	leaq	.L.str829, %rax
	movq	%rax, 5488(%rsp)        # 8-byte Spill
	leaq	.L.str830, %rax
	movq	%rax, 5480(%rsp)        # 8-byte Spill
	movabsq	$46, %rax
	movq	%rax, 5472(%rsp)        # 8-byte Spill
	leaq	.L.str826, %rax
	movq	%rax, 5464(%rsp)        # 8-byte Spill
	leaq	.L.str827, %rax
	movq	%rax, 5456(%rsp)        # 8-byte Spill
	leaq	.L.str824, %rax
	movq	%rax, 5448(%rsp)        # 8-byte Spill
	leaq	.L.str825, %rax
	movq	%rax, 5440(%rsp)        # 8-byte Spill
	leaq	.L.str822, %rax
	movq	%rax, 5432(%rsp)        # 8-byte Spill
	leaq	.L.str823, %rax
	movq	%rax, 5424(%rsp)        # 8-byte Spill
	leaq	.L.str819, %rax
	movq	%rax, 5416(%rsp)        # 8-byte Spill
	leaq	.L.str820, %rax
	movq	%rax, 5408(%rsp)        # 8-byte Spill
	leaq	.L.str821, %rax
	movq	%rax, 5400(%rsp)        # 8-byte Spill
	movabsq	$8, %rax
	movq	%rax, 5392(%rsp)        # 8-byte Spill
	leaq	.L.str817, %rax
	movq	%rax, 5384(%rsp)        # 8-byte Spill
	leaq	.L.str818, %rax
	movq	%rax, 5376(%rsp)        # 8-byte Spill
	leaq	.L.str815, %rax
	movq	%rax, 5368(%rsp)        # 8-byte Spill
	leaq	.L.str816, %rax
	movq	%rax, 5360(%rsp)        # 8-byte Spill
	movabsq	$99, %rax
	movq	%rax, 5352(%rsp)        # 8-byte Spill
	leaq	.L.str812, %rax
	movq	%rax, 5344(%rsp)        # 8-byte Spill
	leaq	.L.str813, %rax
	movq	%rax, 5336(%rsp)        # 8-byte Spill
	leaq	.L.str814, %rax
	movq	%rax, 5328(%rsp)        # 8-byte Spill
	movabsq	$28, %rax
	movq	%rax, 5320(%rsp)        # 8-byte Spill
	leaq	.L.str810, %rax
	movq	%rax, 5312(%rsp)        # 8-byte Spill
	leaq	.L.str811, %rax
	movq	%rax, 5304(%rsp)        # 8-byte Spill
	leaq	.L.str808, %rax
	movq	%rax, 5296(%rsp)        # 8-byte Spill
	leaq	.L.str809, %rax
	movq	%rax, 5288(%rsp)        # 8-byte Spill
	leaq	.L.str806, %rax
	movq	%rax, 5280(%rsp)        # 8-byte Spill
	leaq	.L.str807, %rax
	movq	%rax, 5272(%rsp)        # 8-byte Spill
	leaq	.L.str803, %rax
	movq	%rax, 5264(%rsp)        # 8-byte Spill
	leaq	.L.str804, %rax
	movq	%rax, 5256(%rsp)        # 8-byte Spill
	leaq	.L.str805, %rax
	movq	%rax, 5248(%rsp)        # 8-byte Spill
	movabsq	$29, %rax
	movq	%rax, 5240(%rsp)        # 8-byte Spill
	leaq	.L.str801, %rax
	movq	%rax, 5232(%rsp)        # 8-byte Spill
	leaq	.L.str802, %rax
	movq	%rax, 5224(%rsp)        # 8-byte Spill
	leaq	.L.str799, %rax
	movq	%rax, 5216(%rsp)        # 8-byte Spill
	leaq	.L.str800, %rax
	movq	%rax, 5208(%rsp)        # 8-byte Spill
	movabsq	$98, %rax
	movq	%rax, 5200(%rsp)        # 8-byte Spill
	leaq	.L.str796, %rax
	movq	%rax, 5192(%rsp)        # 8-byte Spill
	leaq	.L.str797, %rax
	movq	%rax, 5184(%rsp)        # 8-byte Spill
	leaq	.L.str798, %rax
	movq	%rax, 5176(%rsp)        # 8-byte Spill
	leaq	.L.str794, %rax
	movq	%rax, 5168(%rsp)        # 8-byte Spill
	leaq	.L.str795, %rax
	movq	%rax, 5160(%rsp)        # 8-byte Spill
	leaq	.L.str792, %rax
	movq	%rax, 5152(%rsp)        # 8-byte Spill
	leaq	.L.str793, %rax
	movq	%rax, 5144(%rsp)        # 8-byte Spill
	leaq	.L.str790, %rax
	movq	%rax, 5136(%rsp)        # 8-byte Spill
	leaq	.L.str791, %rax
	movq	%rax, 5128(%rsp)        # 8-byte Spill
	leaq	.L.str787, %rax
	movq	%rax, 5120(%rsp)        # 8-byte Spill
	leaq	.L.str788, %rax
	movq	%rax, 5112(%rsp)        # 8-byte Spill
	leaq	.L.str789, %rax
	movq	%rax, 5104(%rsp)        # 8-byte Spill
	leaq	.L.str785, %rax
	movq	%rax, 5096(%rsp)        # 8-byte Spill
	leaq	.L.str786, %rax
	movq	%rax, 5088(%rsp)        # 8-byte Spill
	leaq	.L.str783, %rax
	movq	%rax, 5080(%rsp)        # 8-byte Spill
	leaq	.L.str784, %rax
	movq	%rax, 5072(%rsp)        # 8-byte Spill
	leaq	.L.str781, %rax
	movq	%rax, 5064(%rsp)        # 8-byte Spill
	leaq	.L.str782, %rax
	movq	%rax, 5056(%rsp)        # 8-byte Spill
	leaq	.L.str778, %rax
	movq	%rax, 5048(%rsp)        # 8-byte Spill
	leaq	.L.str779, %rax
	movq	%rax, 5040(%rsp)        # 8-byte Spill
	leaq	.L.str780, %rax
	movq	%rax, 5032(%rsp)        # 8-byte Spill
	leaq	.L.str776, %rax
	movq	%rax, 5024(%rsp)        # 8-byte Spill
	leaq	.L.str777, %rax
	movq	%rax, 5016(%rsp)        # 8-byte Spill
	leaq	.L.str774, %rax
	movq	%rax, 5008(%rsp)        # 8-byte Spill
	leaq	.L.str775, %rax
	movq	%rax, 5000(%rsp)        # 8-byte Spill
	leaq	.L.str771, %rax
	movq	%rax, 4992(%rsp)        # 8-byte Spill
	leaq	.L.str772, %rax
	movq	%rax, 4984(%rsp)        # 8-byte Spill
	leaq	.L.str773, %rax
	movq	%rax, 4976(%rsp)        # 8-byte Spill
	movabsq	$37, %rax
	movq	%rax, 4968(%rsp)        # 8-byte Spill
	leaq	.L.str769, %rax
	movq	%rax, 4960(%rsp)        # 8-byte Spill
	leaq	.L.str770, %rax
	vxorps	%xmm0, %xmm0, %xmm0
	movq	%rax, 4952(%rsp)        # 8-byte Spill
	leaq	.L.str767, %rax
	movq	%rax, 4944(%rsp)        # 8-byte Spill
	leaq	.L.str768, %rax
	movq	%rax, 4936(%rsp)        # 8-byte Spill
	leaq	.L.str765, %rax
	movq	%rax, 4928(%rsp)        # 8-byte Spill
	leaq	.L.str766, %rax
	movq	%rax, 4920(%rsp)        # 8-byte Spill
	leaq	.L.str762, %rax
	movq	%rax, 4912(%rsp)        # 8-byte Spill
	leaq	.L.str763, %rax
	movq	%rax, 4904(%rsp)        # 8-byte Spill
	leaq	.L.str764, %rax
	movq	%rax, 4896(%rsp)        # 8-byte Spill
	movabsq	$9, %rax
	movq	%rax, 4888(%rsp)        # 8-byte Spill
	leaq	.L.str760, %rax
	movq	%rax, 4880(%rsp)        # 8-byte Spill
	leaq	.L.str761, %rax
	movq	%rax, 4872(%rsp)        # 8-byte Spill
	movabsq	$2147483647, %rax       # imm = 0x7FFFFFFF
	vmovsd	.LCPI1_0, %xmm1
	movq	%rax, 4864(%rsp)        # 8-byte Spill
	leaq	.L.str758, %rax
	movq	%rax, 4856(%rsp)        # 8-byte Spill
	leaq	.L.str759, %rax
	movq	%rax, 4848(%rsp)        # 8-byte Spill
	leaq	.L.str756, %rax
	movq	%rax, 4840(%rsp)        # 8-byte Spill
	leaq	.L.str757, %rax
	movq	%rax, 4832(%rsp)        # 8-byte Spill
	leaq	.L.str753, %rax
	movq	%rax, 4824(%rsp)        # 8-byte Spill
	leaq	.L.str754, %rax
	movq	%rax, 4816(%rsp)        # 8-byte Spill
	leaq	.L.str755, %rax
	movq	%rax, 4808(%rsp)        # 8-byte Spill
	movabsq	$16, %rax
	movq	%rax, 4800(%rsp)        # 8-byte Spill
	leaq	.L.str751, %rax
	movq	%rax, 4792(%rsp)        # 8-byte Spill
	leaq	.L.str752, %rax
	movq	%rax, 4784(%rsp)        # 8-byte Spill
	movabsq	$2147483646, %rax       # imm = 0x7FFFFFFE
	vmovsd	.LCPI1_1, %xmm2
	movq	%rax, 4776(%rsp)        # 8-byte Spill
	leaq	.L.str749, %rax
	movq	%rax, 4768(%rsp)        # 8-byte Spill
	leaq	.L.str750, %rax
	movq	%rax, 4760(%rsp)        # 8-byte Spill
	leaq	.L.str747, %rax
	movq	%rax, 4752(%rsp)        # 8-byte Spill
	leaq	.L.str748, %rax
	movq	%rax, 4744(%rsp)        # 8-byte Spill
	leaq	.L.str744, %rax
	movq	%rax, 4736(%rsp)        # 8-byte Spill
	leaq	.L.str745, %rax
	movq	%rax, 4728(%rsp)        # 8-byte Spill
	leaq	.L.str746, %rax
	movq	%rax, 4720(%rsp)        # 8-byte Spill
	movabsq	$13, %rax
	movq	%rax, 4712(%rsp)        # 8-byte Spill
	leaq	.L.str742, %rax
	movq	%rax, 4704(%rsp)        # 8-byte Spill
	leaq	.L.str743, %rax
	.loc	1 98 0                  # stencil.c:98:0
.Ltmp92:
	movq	%rax, 4696(%rsp)        # 8-byte Spill
	movq	%rsp, %rax
	movl	$1, (%rax)
	movl	$.L.str721, %eax
                                        # kill: RAX<def> EAX<kill>
	movl	%esi, 4692(%rsp)        # 4-byte Spill
	movl	$.L.str722, %esi
                                        # kill: RSI<def> ESI<kill>
	movq	%rsi, 4680(%rsp)        # 8-byte Spill
	movl	$.L.str723, %esi
                                        # kill: RSI<def> ESI<kill>
	movq	%rsi, 4672(%rsp)        # 8-byte Spill
	movl	$48, %esi
                                        # kill: RSI<def> ESI<kill>
	movq	%rax, 4664(%rsp)        # 8-byte Spill
	movq	$-1, %rax
	movq	%rsi, 4656(%rsp)        # 8-byte Spill
	xorl	%esi, %esi
	movq	%rdi, 4648(%rsp)        # 8-byte Spill
	movq	%rax, %rdi
	movq	4664(%rsp), %rax        # 8-byte Reload
	movl	%esi, 4644(%rsp)        # 4-byte Spill
	movq	%rax, %rsi
	movq	4680(%rsp), %rax        # 8-byte Reload
	movq	%rdx, 4632(%rsp)        # 8-byte Spill
	movq	%rax, %rdx
	movq	4672(%rsp), %rax        # 8-byte Reload
	movq	%rcx, 4624(%rsp)        # 8-byte Spill
	movq	%rax, %rcx
	movq	4656(%rsp), %rax        # 8-byte Reload
	movq	%r8, 4616(%rsp)         # 8-byte Spill
	movq	%rax, %r8
	movl	4644(%rsp), %eax        # 4-byte Reload
	movq	%r9, 4608(%rsp)         # 8-byte Spill
	movl	%eax, %r9d
	vmovsd	%xmm2, 4600(%rsp)       # 8-byte Spill
	movq	%rbp, 4592(%rsp)        # 8-byte Spill
	movq	%r13, 4584(%rsp)        # 8-byte Spill
	vmovsd	%xmm0, 4576(%rsp)       # 8-byte Spill
	vmovsd	%xmm1, 4568(%rsp)       # 8-byte Spill
	movq	%r12, 4560(%rsp)        # 8-byte Spill
	movq	%r10, 4552(%rsp)        # 8-byte Spill
	movq	%r11, 4544(%rsp)        # 8-byte Spill
	movq	%rbx, 4536(%rsp)        # 8-byte Spill
	movq	%r14, 4528(%rsp)        # 8-byte Spill
	movq	%r15, 4520(%rsp)        # 8-byte Spill
	callq	trace_logger_log0
	movq	%rsp, %rcx
	movq	$.L.str725, (%rcx)
	movl	$.L.str724, %eax
	movl	%eax, %r8d
	movl	$2, %eax
	movl	%eax, %edi
	movl	$64, %eax
	movl	%eax, %ecx
	movl	4644(%rsp), %eax        # 4-byte Reload
	movl	%eax, %edx
	movl	$1, %r9d
	movl	%r9d, %esi
	movq	%rsi, 4512(%rsp)        # 8-byte Spill
	movq	%rcx, %rsi
	movq	%rdx, 4504(%rsp)        # 8-byte Spill
	movq	4512(%rsp), %r10        # 8-byte Reload
	movq	%rcx, 4496(%rsp)        # 8-byte Spill
	movq	%r10, %rcx
	movq	%r10, %r9
	callq	trace_logger_log_int
	movq	%rsp, %rcx
	movq	$.L.str727, (%rcx)
	movl	$.L.str726, %eax
	movl	%eax, %r8d
	movq	4512(%rsp), %rdi        # 8-byte Reload
	movq	4496(%rsp), %rsi        # 8-byte Reload
	movq	4504(%rsp), %rdx        # 8-byte Reload
	movq	4504(%rsp), %rcx        # 8-byte Reload
	movq	4512(%rsp), %r9         # 8-byte Reload
	callq	trace_logger_log_int
	movq	%rsp, %rcx
	movq	$.L.str729, (%rcx)
	movl	$.L.str728, %eax
	movl	%eax, %r8d
	movl	$19134, %eax            # imm = 0x4ABE
	movl	%eax, %ecx
	movq	%rcx, %rdi
	movq	4496(%rsp), %rsi        # 8-byte Reload
	movq	5576(%rsp), %rdx        # 8-byte Reload
	movq	4512(%rsp), %r9         # 8-byte Reload
	movq	%rcx, 4488(%rsp)        # 8-byte Spill
	movq	%r9, %rcx
	movq	4504(%rsp), %r9         # 8-byte Reload
	callq	trace_logger_log_int
	movq	%rsp, %rcx
	movl	$1, (%rcx)
	movl	$.L.str730, %eax
	movl	%eax, %esi
	movl	$.L.str731, %eax
	movl	%eax, %edx
	movl	$.L.str732, %eax
	movl	%eax, %ecx
	movl	$98, %eax
	movl	%eax, %edi
	movl	$49, %eax
	movl	%eax, %r8d
	movq	%rdi, 4480(%rsp)        # 8-byte Spill
	movl	4644(%rsp), %r9d        # 4-byte Reload
	callq	trace_logger_log0
	movq	%rsp, %rcx
	movq	$.L.str734, (%rcx)
	movl	$rand, %eax
	movl	%eax, %edx
	movl	$.L.str733, %eax
	movl	%eax, %r8d
	movq	4512(%rsp), %rdi        # 8-byte Reload
	movq	4496(%rsp), %rsi        # 8-byte Reload
	movq	4512(%rsp), %rcx        # 8-byte Reload
	movq	4504(%rsp), %r9         # 8-byte Reload
	callq	trace_logger_log_int
	callq	rand
	movl	%eax, %esi
	movl	%eax, %edi
	movl	%edi, %ecx
	movq	%rsp, %rdx
	movq	$.L.str736, (%rdx)
	movl	$.L.str735, %edi
	movl	%edi, %r8d
	movl	$32, %edi
	movl	%edi, %edx
	movq	4488(%rsp), %rdi        # 8-byte Reload
	movl	%esi, 4476(%rsp)        # 4-byte Spill
	movq	%rdx, %rsi
	movq	%rdx, 4464(%rsp)        # 8-byte Spill
	movq	%rcx, %rdx
	movq	4512(%rsp), %r9         # 8-byte Reload
	movq	%rcx, 4456(%rsp)        # 8-byte Spill
	movq	%r9, %rcx
	movq	4504(%rsp), %r9         # 8-byte Reload
	movl	%eax, 4452(%rsp)        # 4-byte Spill
	callq	trace_logger_log_int
	movq	%rsp, %rcx
	movl	$1, (%rcx)
	movl	$.L.str737, %eax
	movl	%eax, %esi
	movl	$.L.str738, %eax
	movl	%eax, %edx
	movl	$.L.str739, %eax
	movl	%eax, %ecx
	movl	$39, %eax
	movl	%eax, %r8d
	movq	4480(%rsp), %rdi        # 8-byte Reload
	movl	4644(%rsp), %r9d        # 4-byte Reload
	callq	trace_logger_log0
	movq	%rsp, %rcx
	movq	$.L.str741, (%rcx)
	movl	$.L.str740, %eax
	movl	%eax, %r8d
	movq	4512(%rsp), %rdi        # 8-byte Reload
	movq	4464(%rsp), %rsi        # 8-byte Reload
	movq	4456(%rsp), %rdx        # 8-byte Reload
	movq	4512(%rsp), %rcx        # 8-byte Reload
	movq	4504(%rsp), %r9         # 8-byte Reload
	callq	trace_logger_log_int
                                        # implicit-def: XMM0
	movl	4452(%rsp), %eax        # 4-byte Reload
	vcvtsi2sdl	%eax, %xmm0, %xmm0
	movq	5568(%rsp), %rdi        # 8-byte Reload
	movq	5544(%rsp), %rsi        # 8-byte Reload
	vmovsd	%xmm0, 4440(%rsp)       # 8-byte Spill
	movq	4624(%rsp), %rdx        # 8-byte Reload
	movq	4704(%rsp), %rcx        # 8-byte Reload
	movq	4632(%rsp), %r8         # 8-byte Reload
	movq	4696(%rsp), %r9         # 8-byte Reload
	callq	trace_logger_log_double
	movq	5200(%rsp), %rdi        # 8-byte Reload
	movq	4736(%rsp), %rsi        # 8-byte Reload
	movq	4728(%rsp), %rdx        # 8-byte Reload
	movq	4720(%rsp), %rcx        # 8-byte Reload
	movq	4712(%rsp), %r8         # 8-byte Reload
	movl	5588(%rsp), %r9d        # 4-byte Reload
	movl	$1, (%rsp)
	callq	trace_logger_log0
	movq	4648(%rsp), %rdi        # 8-byte Reload
	movq	5544(%rsp), %rsi        # 8-byte Reload
	vmovsd	4600(%rsp), %xmm0       # 8-byte Reload
	movq	4632(%rsp), %rdx        # 8-byte Reload
	movq	4752(%rsp), %rcx        # 8-byte Reload
	movq	4632(%rsp), %r8         # 8-byte Reload
	movq	4744(%rsp), %r9         # 8-byte Reload
	callq	trace_logger_log_double
	movq	4624(%rsp), %rdi        # 8-byte Reload
	movq	5544(%rsp), %rsi        # 8-byte Reload
	vmovsd	4440(%rsp), %xmm0       # 8-byte Reload
	movq	4624(%rsp), %rdx        # 8-byte Reload
	movq	4768(%rsp), %rcx        # 8-byte Reload
	movq	4632(%rsp), %r8         # 8-byte Reload
	movq	4760(%rsp), %r9         # 8-byte Reload
	callq	trace_logger_log_double
	vmovsd	4440(%rsp), %xmm0       # 8-byte Reload
	vmovsd	4600(%rsp), %xmm1       # 8-byte Reload
	vmulsd	%xmm1, %xmm0, %xmm2
	movq	5568(%rsp), %rdi        # 8-byte Reload
	movq	5544(%rsp), %rsi        # 8-byte Reload
	vmovaps	%xmm2, %xmm0
	movq	4624(%rsp), %rdx        # 8-byte Reload
	movq	4792(%rsp), %rcx        # 8-byte Reload
	movq	4632(%rsp), %r8         # 8-byte Reload
	movq	4784(%rsp), %r9         # 8-byte Reload
	vmovsd	%xmm2, 4432(%rsp)       # 8-byte Spill
	callq	trace_logger_log_double
	movq	5200(%rsp), %rdi        # 8-byte Reload
	movq	4824(%rsp), %rsi        # 8-byte Reload
	movq	4816(%rsp), %rdx        # 8-byte Reload
	movq	4808(%rsp), %rcx        # 8-byte Reload
	movq	4800(%rsp), %r8         # 8-byte Reload
	movl	5588(%rsp), %r9d        # 4-byte Reload
	movl	$1, (%rsp)
	callq	trace_logger_log0
	movq	4648(%rsp), %rdi        # 8-byte Reload
	movq	5544(%rsp), %rsi        # 8-byte Reload
	vmovsd	4568(%rsp), %xmm0       # 8-byte Reload
	movq	4632(%rsp), %rdx        # 8-byte Reload
	movq	4840(%rsp), %rcx        # 8-byte Reload
	movq	4632(%rsp), %r8         # 8-byte Reload
	movq	4832(%rsp), %r9         # 8-byte Reload
	callq	trace_logger_log_double
	movq	4624(%rsp), %rdi        # 8-byte Reload
	movq	5544(%rsp), %rsi        # 8-byte Reload
	vmovsd	4432(%rsp), %xmm0       # 8-byte Reload
	movq	4624(%rsp), %rdx        # 8-byte Reload
	movq	4856(%rsp), %rcx        # 8-byte Reload
	movq	4632(%rsp), %r8         # 8-byte Reload
	movq	4848(%rsp), %r9         # 8-byte Reload
	callq	trace_logger_log_double
	vmovsd	4432(%rsp), %xmm0       # 8-byte Reload
	vmovsd	4568(%rsp), %xmm1       # 8-byte Reload
	vdivsd	%xmm1, %xmm0, %xmm2
	movq	5568(%rsp), %rdi        # 8-byte Reload
	movq	5544(%rsp), %rsi        # 8-byte Reload
	vmovaps	%xmm2, %xmm0
	movq	4624(%rsp), %rdx        # 8-byte Reload
	movq	4880(%rsp), %rcx        # 8-byte Reload
	movq	4632(%rsp), %r8         # 8-byte Reload
	movq	4872(%rsp), %r9         # 8-byte Reload
	vmovsd	%xmm2, 4424(%rsp)       # 8-byte Spill
	callq	trace_logger_log_double
	movq	5200(%rsp), %rdi        # 8-byte Reload
	movq	4912(%rsp), %rsi        # 8-byte Reload
	movq	4904(%rsp), %rdx        # 8-byte Reload
	movq	4896(%rsp), %rcx        # 8-byte Reload
	movq	4888(%rsp), %r8         # 8-byte Reload
	movl	5588(%rsp), %r9d        # 4-byte Reload
	movl	$1, (%rsp)
	callq	trace_logger_log0
	movq	4648(%rsp), %rdi        # 8-byte Reload
	movq	5544(%rsp), %rsi        # 8-byte Reload
	vmovsd	4576(%rsp), %xmm0       # 8-byte Reload
	movq	4632(%rsp), %rdx        # 8-byte Reload
	movq	4928(%rsp), %rcx        # 8-byte Reload
	movq	4632(%rsp), %r8         # 8-byte Reload
	movq	4920(%rsp), %r9         # 8-byte Reload
	callq	trace_logger_log_double
	movq	4624(%rsp), %rdi        # 8-byte Reload
	movq	5544(%rsp), %rsi        # 8-byte Reload
	vmovsd	4424(%rsp), %xmm0       # 8-byte Reload
	movq	4624(%rsp), %rdx        # 8-byte Reload
	movq	4944(%rsp), %rcx        # 8-byte Reload
	movq	4632(%rsp), %r8         # 8-byte Reload
	movq	4936(%rsp), %r9         # 8-byte Reload
	callq	trace_logger_log_double
	vmovsd	4424(%rsp), %xmm0       # 8-byte Reload
	vmovsd	4576(%rsp), %xmm1       # 8-byte Reload
	vaddsd	%xmm1, %xmm0, %xmm2
	movq	5568(%rsp), %rdi        # 8-byte Reload
	movq	5544(%rsp), %rsi        # 8-byte Reload
	vmovaps	%xmm2, %xmm0
	movq	4624(%rsp), %rdx        # 8-byte Reload
	movq	4960(%rsp), %rcx        # 8-byte Reload
	movq	4632(%rsp), %r8         # 8-byte Reload
	movq	4952(%rsp), %r9         # 8-byte Reload
	vmovsd	%xmm2, 4416(%rsp)       # 8-byte Spill
	callq	trace_logger_log_double
	movq	5200(%rsp), %rdi        # 8-byte Reload
	movq	4992(%rsp), %rsi        # 8-byte Reload
	movq	4984(%rsp), %rdx        # 8-byte Reload
	movq	4976(%rsp), %rcx        # 8-byte Reload
	movq	4968(%rsp), %r8         # 8-byte Reload
	movl	5588(%rsp), %r9d        # 4-byte Reload
	movl	$1, (%rsp)
	callq	trace_logger_log0
	movq	4624(%rsp), %rdi        # 8-byte Reload
	movq	5544(%rsp), %rsi        # 8-byte Reload
	vmovsd	4416(%rsp), %xmm0       # 8-byte Reload
	movq	4624(%rsp), %rdx        # 8-byte Reload
	movq	5008(%rsp), %rcx        # 8-byte Reload
	movq	4632(%rsp), %r8         # 8-byte Reload
	movq	5000(%rsp), %r9         # 8-byte Reload
	callq	trace_logger_log_double
	vmovsd	4416(%rsp), %xmm0       # 8-byte Reload
	vcvttsd2si	%xmm0, %eax
	movl	%eax, %esi
	movl	%esi, %edx
	movq	5568(%rsp), %rdi        # 8-byte Reload
	movq	5520(%rsp), %rsi        # 8-byte Reload
	movq	4624(%rsp), %rcx        # 8-byte Reload
	movq	5024(%rsp), %r8         # 8-byte Reload
	movq	4632(%rsp), %r9         # 8-byte Reload
	movq	5016(%rsp), %r10        # 8-byte Reload
	movq	%r10, (%rsp)
	movl	%eax, 4412(%rsp)        # 4-byte Spill
	callq	trace_logger_log_int
	movq	5200(%rsp), %rdi        # 8-byte Reload
	movq	5048(%rsp), %rsi        # 8-byte Reload
	movq	5040(%rsp), %rdx        # 8-byte Reload
	movq	5032(%rsp), %rcx        # 8-byte Reload
	movq	5392(%rsp), %r8         # 8-byte Reload
	movl	5588(%rsp), %r9d        # 4-byte Reload
	movl	$1, (%rsp)
	callq	trace_logger_log0
	movq	4648(%rsp), %rdi        # 8-byte Reload
	movq	5544(%rsp), %rsi        # 8-byte Reload
	movq	5800(%rsp), %rdx        # 8-byte Reload
	movq	4624(%rsp), %rcx        # 8-byte Reload
	movq	5064(%rsp), %r8         # 8-byte Reload
	movq	4632(%rsp), %r9         # 8-byte Reload
	movq	5056(%rsp), %r10        # 8-byte Reload
	movq	%r10, (%rsp)
	callq	trace_logger_log_int
	movq	4624(%rsp), %rdi        # 8-byte Reload
	movq	5544(%rsp), %rsi        # 8-byte Reload
	movq	5576(%rsp), %rdx        # 8-byte Reload
	movq	4624(%rsp), %rcx        # 8-byte Reload
	movq	5080(%rsp), %r8         # 8-byte Reload
	movq	4632(%rsp), %r9         # 8-byte Reload
	movq	5072(%rsp), %r10        # 8-byte Reload
	movq	%r10, (%rsp)
	callq	trace_logger_log_int
	movq	5576(%rsp), %rcx        # 8-byte Reload
	movq	5800(%rsp), %rdx        # 8-byte Reload
	addq	%rdx, %rcx
	movq	5568(%rsp), %rdi        # 8-byte Reload
	movq	5544(%rsp), %rsi        # 8-byte Reload
	movq	%rcx, %rdx
	movq	4624(%rsp), %r8         # 8-byte Reload
	movq	%rcx, 4400(%rsp)        # 8-byte Spill
	movq	%r8, %rcx
	movq	5096(%rsp), %r8         # 8-byte Reload
	movq	4632(%rsp), %r9         # 8-byte Reload
	movq	5088(%rsp), %r10        # 8-byte Reload
	movq	%r10, (%rsp)
	callq	trace_logger_log_int
	movq	5200(%rsp), %rdi        # 8-byte Reload
	movq	5120(%rsp), %rsi        # 8-byte Reload
	movq	5112(%rsp), %rdx        # 8-byte Reload
	movq	5104(%rsp), %rcx        # 8-byte Reload
	movq	5240(%rsp), %r8         # 8-byte Reload
	movl	5588(%rsp), %r9d        # 4-byte Reload
	movl	$1, (%rsp)
	callq	trace_logger_log0
	movq	4648(%rsp), %rdi        # 8-byte Reload
	movq	5544(%rsp), %rsi        # 8-byte Reload
	movq	4400(%rsp), %rdx        # 8-byte Reload
	movq	4624(%rsp), %rcx        # 8-byte Reload
	movq	5136(%rsp), %r8         # 8-byte Reload
	movq	4632(%rsp), %r9         # 8-byte Reload
	movq	5128(%rsp), %r10        # 8-byte Reload
	movq	%r10, (%rsp)
	callq	trace_logger_log_int
	movq	4624(%rsp), %rdi        # 8-byte Reload
	movq	5544(%rsp), %rsi        # 8-byte Reload
	movq	6472(%rsp), %rdx        # 8-byte Reload
	movq	4624(%rsp), %rcx        # 8-byte Reload
	movq	5152(%rsp), %r8         # 8-byte Reload
	movq	4632(%rsp), %r9         # 8-byte Reload
	movq	5144(%rsp), %r10        # 8-byte Reload
	movq	%r10, (%rsp)
	callq	trace_logger_log_int
	movq	4400(%rsp), %rcx        # 8-byte Reload
	shlq	$2, %rcx
	movq	6472(%rsp), %rdx        # 8-byte Reload
	addq	%rcx, %rdx
	movq	5568(%rsp), %rdi        # 8-byte Reload
	movq	5544(%rsp), %rsi        # 8-byte Reload
	movq	%rdx, 4392(%rsp)        # 8-byte Spill
	movq	4624(%rsp), %rcx        # 8-byte Reload
	movq	5168(%rsp), %r8         # 8-byte Reload
	movq	4632(%rsp), %r9         # 8-byte Reload
	movq	5160(%rsp), %r10        # 8-byte Reload
	movq	%r10, (%rsp)
	callq	trace_logger_log_int
	movq	5200(%rsp), %rdi        # 8-byte Reload
	movq	5192(%rsp), %rsi        # 8-byte Reload
	movq	5184(%rsp), %rdx        # 8-byte Reload
	movq	5176(%rsp), %rcx        # 8-byte Reload
	movq	5320(%rsp), %r8         # 8-byte Reload
	movl	5588(%rsp), %r9d        # 4-byte Reload
	movl	$1, (%rsp)
	callq	trace_logger_log0
	movq	4648(%rsp), %rdi        # 8-byte Reload
	movq	5544(%rsp), %rsi        # 8-byte Reload
	movq	4392(%rsp), %rdx        # 8-byte Reload
	movq	4624(%rsp), %rcx        # 8-byte Reload
	movq	5216(%rsp), %r8         # 8-byte Reload
	movq	4632(%rsp), %r9         # 8-byte Reload
	movq	5208(%rsp), %r10        # 8-byte Reload
	movq	%r10, (%rsp)
	callq	trace_logger_log_int
	movl	4412(%rsp), %eax        # 4-byte Reload
	movl	%eax, %eax
	movl	%eax, %edx
	movq	4624(%rsp), %rdi        # 8-byte Reload
	movq	5520(%rsp), %rsi        # 8-byte Reload
	movq	4624(%rsp), %rcx        # 8-byte Reload
	movq	5232(%rsp), %r8         # 8-byte Reload
	movq	4632(%rsp), %r9         # 8-byte Reload
	movq	5224(%rsp), %r10        # 8-byte Reload
	movq	%r10, (%rsp)
	callq	trace_logger_log_int
	movq	6472(%rsp), %rcx        # 8-byte Reload
	movq	4400(%rsp), %rdx        # 8-byte Reload
	movl	4412(%rsp), %eax        # 4-byte Reload
	movl	%eax, (%rcx,%rdx,4)
	.loc	1 99 0                  # stencil.c:99:0
	movq	5352(%rsp), %rdi        # 8-byte Reload
	movq	5264(%rsp), %rsi        # 8-byte Reload
	movq	5256(%rsp), %rdx        # 8-byte Reload
	movq	5248(%rsp), %rcx        # 8-byte Reload
	movq	5240(%rsp), %r8         # 8-byte Reload
	movl	5588(%rsp), %r9d        # 4-byte Reload
	movl	$1, (%rsp)
	callq	trace_logger_log0
	movq	4648(%rsp), %rdi        # 8-byte Reload
	movq	5544(%rsp), %rsi        # 8-byte Reload
	movq	4400(%rsp), %rdx        # 8-byte Reload
	movq	4624(%rsp), %rcx        # 8-byte Reload
	movq	5280(%rsp), %r8         # 8-byte Reload
	movq	4632(%rsp), %r9         # 8-byte Reload
	movq	5272(%rsp), %r10        # 8-byte Reload
	movq	%r10, (%rsp)
	callq	trace_logger_log_int
	movq	4624(%rsp), %rdi        # 8-byte Reload
	movq	5544(%rsp), %rsi        # 8-byte Reload
	movq	6200(%rsp), %rdx        # 8-byte Reload
	movq	4624(%rsp), %rcx        # 8-byte Reload
	movq	5296(%rsp), %r8         # 8-byte Reload
	movq	4632(%rsp), %r9         # 8-byte Reload
	movq	5288(%rsp), %r10        # 8-byte Reload
	movq	%r10, (%rsp)
	callq	trace_logger_log_int
	movq	4400(%rsp), %rcx        # 8-byte Reload
	shlq	$2, %rcx
	movq	6200(%rsp), %rdx        # 8-byte Reload
	addq	%rcx, %rdx
	movq	5568(%rsp), %rdi        # 8-byte Reload
	movq	5544(%rsp), %rsi        # 8-byte Reload
	movq	%rdx, 4384(%rsp)        # 8-byte Spill
	movq	4624(%rsp), %rcx        # 8-byte Reload
	movq	5312(%rsp), %r8         # 8-byte Reload
	movq	4632(%rsp), %r9         # 8-byte Reload
	movq	5304(%rsp), %r10        # 8-byte Reload
	movq	%r10, (%rsp)
	callq	trace_logger_log_int
	movq	5352(%rsp), %rdi        # 8-byte Reload
	movq	5344(%rsp), %rsi        # 8-byte Reload
	movq	5336(%rsp), %rdx        # 8-byte Reload
	movq	5328(%rsp), %rcx        # 8-byte Reload
	movq	5320(%rsp), %r8         # 8-byte Reload
	movl	5588(%rsp), %r9d        # 4-byte Reload
	movl	$1, (%rsp)
	callq	trace_logger_log0
	movq	4648(%rsp), %rdi        # 8-byte Reload
	movq	5544(%rsp), %rsi        # 8-byte Reload
	movq	4384(%rsp), %rdx        # 8-byte Reload
	movq	4624(%rsp), %rcx        # 8-byte Reload
	movq	5368(%rsp), %r8         # 8-byte Reload
	movq	4632(%rsp), %r9         # 8-byte Reload
	movq	5360(%rsp), %r10        # 8-byte Reload
	movq	%r10, (%rsp)
	callq	trace_logger_log_int
	movq	4624(%rsp), %rdi        # 8-byte Reload
	movq	5520(%rsp), %rsi        # 8-byte Reload
	movq	4632(%rsp), %rdx        # 8-byte Reload
	movq	4632(%rsp), %rcx        # 8-byte Reload
	movq	5384(%rsp), %r8         # 8-byte Reload
	movq	4632(%rsp), %r9         # 8-byte Reload
	movq	5376(%rsp), %r10        # 8-byte Reload
	movq	%r10, (%rsp)
	callq	trace_logger_log_int
	movq	6200(%rsp), %rcx        # 8-byte Reload
	movq	4400(%rsp), %rdx        # 8-byte Reload
	movl	$0, (%rcx,%rdx,4)
.Ltmp93:
	.loc	1 96 0                  # stencil.c:96:0
	movq	4520(%rsp), %rdi        # 8-byte Reload
	movq	5416(%rsp), %rsi        # 8-byte Reload
	movq	5408(%rsp), %rdx        # 8-byte Reload
	movq	5400(%rsp), %rcx        # 8-byte Reload
	movq	5392(%rsp), %r8         # 8-byte Reload
	movl	5588(%rsp), %r9d        # 4-byte Reload
	movl	$1, (%rsp)
	callq	trace_logger_log0
	movq	4648(%rsp), %rdi        # 8-byte Reload
	movq	5544(%rsp), %rsi        # 8-byte Reload
	movq	4624(%rsp), %rdx        # 8-byte Reload
	movq	4632(%rsp), %rcx        # 8-byte Reload
	movq	5432(%rsp), %r8         # 8-byte Reload
	movq	4632(%rsp), %r9         # 8-byte Reload
	movq	5424(%rsp), %r10        # 8-byte Reload
	movq	%r10, (%rsp)
	callq	trace_logger_log_int
	movq	4624(%rsp), %rdi        # 8-byte Reload
	movq	5544(%rsp), %rsi        # 8-byte Reload
	movq	5576(%rsp), %rdx        # 8-byte Reload
	movq	4624(%rsp), %rcx        # 8-byte Reload
	movq	5448(%rsp), %r8         # 8-byte Reload
	movq	4632(%rsp), %r9         # 8-byte Reload
	movq	5440(%rsp), %r10        # 8-byte Reload
	movq	%r10, (%rsp)
	callq	trace_logger_log_int
	movq	5576(%rsp), %rcx        # 8-byte Reload
	addq	$1, %rcx
	movq	5568(%rsp), %rdi        # 8-byte Reload
	movq	5544(%rsp), %rsi        # 8-byte Reload
	movq	%rcx, %rdx
	movq	4624(%rsp), %r8         # 8-byte Reload
	movq	%rcx, 4376(%rsp)        # 8-byte Spill
	movq	%r8, %rcx
	movq	5464(%rsp), %r8         # 8-byte Reload
	movq	4632(%rsp), %r9         # 8-byte Reload
	movq	5456(%rsp), %r10        # 8-byte Reload
	movq	%r10, (%rsp)
	callq	trace_logger_log_int
	movq	4520(%rsp), %rdi        # 8-byte Reload
	movq	5496(%rsp), %rsi        # 8-byte Reload
	movq	5488(%rsp), %rdx        # 8-byte Reload
	movq	5480(%rsp), %rcx        # 8-byte Reload
	movq	5472(%rsp), %r8         # 8-byte Reload
	movl	5588(%rsp), %r9d        # 4-byte Reload
	movl	$1, (%rsp)
	callq	trace_logger_log0
	movq	4648(%rsp), %rdi        # 8-byte Reload
	movq	5544(%rsp), %rsi        # 8-byte Reload
	movq	5520(%rsp), %rdx        # 8-byte Reload
	movq	4632(%rsp), %rcx        # 8-byte Reload
	movq	5512(%rsp), %r8         # 8-byte Reload
	movq	4632(%rsp), %r9         # 8-byte Reload
	movq	5504(%rsp), %r10        # 8-byte Reload
	movq	%r10, (%rsp)
	callq	trace_logger_log_int
	movq	4624(%rsp), %rdi        # 8-byte Reload
	movq	5544(%rsp), %rsi        # 8-byte Reload
	movq	4376(%rsp), %rdx        # 8-byte Reload
	movq	4624(%rsp), %rcx        # 8-byte Reload
	movq	5536(%rsp), %r8         # 8-byte Reload
	movq	4632(%rsp), %r9         # 8-byte Reload
	movq	5528(%rsp), %r10        # 8-byte Reload
	movq	%r10, (%rsp)
	callq	trace_logger_log_int
	movq	4376(%rsp), %rcx        # 8-byte Reload
	cmpq	$32, %rcx
	sete	%al
	movb	%al, %cl
	andb	$1, %cl
	movzbl	%cl, %ecx
	movl	%ecx, %edx
	movq	5568(%rsp), %rdi        # 8-byte Reload
	movq	4624(%rsp), %rsi        # 8-byte Reload
	movq	4624(%rsp), %rcx        # 8-byte Reload
	movq	5560(%rsp), %r8         # 8-byte Reload
	movq	4632(%rsp), %r9         # 8-byte Reload
	movq	5552(%rsp), %r10        # 8-byte Reload
	movq	%r10, (%rsp)
	movb	%al, 4375(%rsp)         # 1-byte Spill
	callq	trace_logger_log_int
	movq	4520(%rsp), %rdi        # 8-byte Reload
	movq	4560(%rsp), %rsi        # 8-byte Reload
	movq	4584(%rsp), %rdx        # 8-byte Reload
	movq	4592(%rsp), %rcx        # 8-byte Reload
	movq	4648(%rsp), %r8         # 8-byte Reload
	movl	5588(%rsp), %r9d        # 4-byte Reload
	movl	$1, (%rsp)
	callq	trace_logger_log0
	movq	4544(%rsp), %rdi        # 8-byte Reload
	movq	4632(%rsp), %rsi        # 8-byte Reload
	movq	4632(%rsp), %rdx        # 8-byte Reload
	movq	4624(%rsp), %rcx        # 8-byte Reload
	movq	4536(%rsp), %r8         # 8-byte Reload
	movq	4632(%rsp), %r9         # 8-byte Reload
	movq	4528(%rsp), %r10        # 8-byte Reload
	movq	%r10, (%rsp)
	callq	trace_logger_log_int
	movq	4648(%rsp), %rdi        # 8-byte Reload
	movq	4632(%rsp), %rsi        # 8-byte Reload
	movq	4632(%rsp), %rdx        # 8-byte Reload
	movq	4624(%rsp), %rcx        # 8-byte Reload
	movq	4608(%rsp), %r8         # 8-byte Reload
	movq	4632(%rsp), %r9         # 8-byte Reload
	movq	4552(%rsp), %r10        # 8-byte Reload
	movq	%r10, (%rsp)
	callq	trace_logger_log_int
	movb	4375(%rsp), %al         # 1-byte Reload
	andb	$1, %al
	movzbl	%al, %eax
	movl	%eax, %edx
	movq	4624(%rsp), %rdi        # 8-byte Reload
	movq	4624(%rsp), %rsi        # 8-byte Reload
	movq	4624(%rsp), %rcx        # 8-byte Reload
	movq	4616(%rsp), %r8         # 8-byte Reload
	movq	4632(%rsp), %r9         # 8-byte Reload
	movq	5592(%rsp), %r10        # 8-byte Reload
	movq	%r10, (%rsp)
	callq	trace_logger_log_int
	movb	4375(%rsp), %al         # 1-byte Reload
	testb	$1, %al
	movq	4376(%rsp), %rcx        # 8-byte Reload
	movq	%rcx, 5792(%rsp)        # 8-byte Spill
	jne	.LBB1_4
	jmp	.LBB1_3
.Ltmp94:
.LBB1_4:                                #   in Loop: Header=BB1_1 Depth=1
	movabsq	$1, %rax
	leaq	.L.str871, %r8
	movabsq	$0, %rcx
	leaq	.L.str872, %rdx
	movabsq	$2, %rsi
	leaq	.L.str869, %rdi
	leaq	.L.str870, %r9
	movabsq	$3, %r10
	leaq	.L.str867, %r11
	leaq	.L.str868, %rbx
	movabsq	$94, %r14
	leaq	.L.str864, %r15
	leaq	.L.str865, %r12
	leaq	.L.str866, %r13
	movl	$0, %ebp
	movq	%rsi, 4360(%rsp)        # 8-byte Spill
	movl	$1, %esi
	movq	%rax, 4352(%rsp)        # 8-byte Spill
	movabsq	$19134, %rax            # imm = 0x4ABE
	movq	%rax, 4344(%rsp)        # 8-byte Spill
	leaq	.L.str862, %rax
	movq	%rax, 4336(%rsp)        # 8-byte Spill
	leaq	.L.str863, %rax
	movq	%rax, 4328(%rsp)        # 8-byte Spill
	movabsq	$64, %rax
	movq	%rax, 4320(%rsp)        # 8-byte Spill
	leaq	.L.str860, %rax
	movq	%rax, 4312(%rsp)        # 8-byte Spill
	leaq	.L.str861, %rax
	movq	%rax, 4304(%rsp)        # 8-byte Spill
	movabsq	$32, %rax
	movq	%rax, 4296(%rsp)        # 8-byte Spill
	leaq	.L.str858, %rax
	movq	%rax, 4288(%rsp)        # 8-byte Spill
	leaq	.L.str859, %rax
	movq	%rax, 4280(%rsp)        # 8-byte Spill
	leaq	.L.str855, %rax
	movq	%rax, 4272(%rsp)        # 8-byte Spill
	leaq	.L.str856, %rax
	movq	%rax, 4264(%rsp)        # 8-byte Spill
	leaq	.L.str857, %rax
	movq	%rax, 4256(%rsp)        # 8-byte Spill
	movabsq	$46, %rax
	movq	%rax, 4248(%rsp)        # 8-byte Spill
	leaq	.L.str853, %rax
	movq	%rax, 4240(%rsp)        # 8-byte Spill
	leaq	.L.str854, %rax
	movq	%rax, 4232(%rsp)        # 8-byte Spill
	leaq	.L.str851, %rax
	movq	%rax, 4224(%rsp)        # 8-byte Spill
	leaq	.L.str852, %rax
	movq	%rax, 4216(%rsp)        # 8-byte Spill
	leaq	.L.str849, %rax
	movq	%rax, 4208(%rsp)        # 8-byte Spill
	leaq	.L.str850, %rax
	movq	%rax, 4200(%rsp)        # 8-byte Spill
	leaq	.L.str846, %rax
	movq	%rax, 4192(%rsp)        # 8-byte Spill
	leaq	.L.str847, %rax
	movq	%rax, 4184(%rsp)        # 8-byte Spill
	leaq	.L.str848, %rax
	movq	%rax, 4176(%rsp)        # 8-byte Spill
	movabsq	$8, %rax
	.loc	1 94 0                  # stencil.c:94:0
	movq	%rdi, 4168(%rsp)        # 8-byte Spill
	movq	%r14, %rdi
	movq	%rax, 4160(%rsp)        # 8-byte Spill
	movq	4192(%rsp), %rax        # 8-byte Reload
	movl	%esi, 4156(%rsp)        # 4-byte Spill
	movq	%rax, %rsi
	movq	4184(%rsp), %rax        # 8-byte Reload
	movq	%rdx, 4144(%rsp)        # 8-byte Spill
	movq	%rax, %rdx
	movq	4176(%rsp), %rax        # 8-byte Reload
	movq	%rcx, 4136(%rsp)        # 8-byte Spill
	movq	%rax, %rcx
	movq	4160(%rsp), %rax        # 8-byte Reload
	movq	%r8, 4128(%rsp)         # 8-byte Spill
	movq	%rax, %r8
	movq	%r9, 4120(%rsp)         # 8-byte Spill
	movl	%ebp, %r9d
	movl	$1, (%rsp)
	movq	%r14, 4112(%rsp)        # 8-byte Spill
	movq	%r15, 4104(%rsp)        # 8-byte Spill
	movq	%r12, 4096(%rsp)        # 8-byte Spill
	movq	%r13, 4088(%rsp)        # 8-byte Spill
	movl	%ebp, 4084(%rsp)        # 4-byte Spill
	movq	%rbx, 4072(%rsp)        # 8-byte Spill
	movq	%r10, 4064(%rsp)        # 8-byte Spill
	movq	%r11, 4056(%rsp)        # 8-byte Spill
	callq	trace_logger_log0
	movq	4360(%rsp), %rdi        # 8-byte Reload
	movq	4320(%rsp), %rsi        # 8-byte Reload
	movq	4352(%rsp), %rdx        # 8-byte Reload
	movq	4136(%rsp), %rcx        # 8-byte Reload
	movq	4208(%rsp), %r8         # 8-byte Reload
	movq	4136(%rsp), %r9         # 8-byte Reload
	movq	4200(%rsp), %rax        # 8-byte Reload
	movq	%rax, (%rsp)
	callq	trace_logger_log_int
	movq	4352(%rsp), %rdi        # 8-byte Reload
	movq	4320(%rsp), %rsi        # 8-byte Reload
	movq	6096(%rsp), %rdx        # 8-byte Reload
	movq	4352(%rsp), %rcx        # 8-byte Reload
	movq	4224(%rsp), %r8         # 8-byte Reload
	movq	4136(%rsp), %r9         # 8-byte Reload
	movq	4216(%rsp), %rax        # 8-byte Reload
	movq	%rax, (%rsp)
	callq	trace_logger_log_int
	movq	6096(%rsp), %rax        # 8-byte Reload
	addq	$1, %rax
	movq	4344(%rsp), %rdi        # 8-byte Reload
	movq	4320(%rsp), %rsi        # 8-byte Reload
	movq	%rax, %rdx
	movq	4352(%rsp), %rcx        # 8-byte Reload
	movq	4240(%rsp), %r8         # 8-byte Reload
	movq	4136(%rsp), %r9         # 8-byte Reload
	movq	4232(%rsp), %r10        # 8-byte Reload
	movq	%r10, (%rsp)
	movq	%rax, 4048(%rsp)        # 8-byte Spill
	callq	trace_logger_log_int
	movq	4112(%rsp), %rdi        # 8-byte Reload
	movq	4272(%rsp), %rsi        # 8-byte Reload
	movq	4264(%rsp), %rdx        # 8-byte Reload
	movq	4256(%rsp), %rcx        # 8-byte Reload
	movq	4248(%rsp), %r8         # 8-byte Reload
	movl	4084(%rsp), %r9d        # 4-byte Reload
	movl	$1, (%rsp)
	callq	trace_logger_log0
	movq	4360(%rsp), %rdi        # 8-byte Reload
	movq	4320(%rsp), %rsi        # 8-byte Reload
	movq	4296(%rsp), %rdx        # 8-byte Reload
	movq	4136(%rsp), %rcx        # 8-byte Reload
	movq	4288(%rsp), %r8         # 8-byte Reload
	movq	4136(%rsp), %r9         # 8-byte Reload
	movq	4280(%rsp), %rax        # 8-byte Reload
	movq	%rax, (%rsp)
	callq	trace_logger_log_int
	movq	4352(%rsp), %rdi        # 8-byte Reload
	movq	4320(%rsp), %rsi        # 8-byte Reload
	movq	4048(%rsp), %rdx        # 8-byte Reload
	movq	4352(%rsp), %rcx        # 8-byte Reload
	movq	4312(%rsp), %r8         # 8-byte Reload
	movq	4136(%rsp), %r9         # 8-byte Reload
	movq	4304(%rsp), %rax        # 8-byte Reload
	movq	%rax, (%rsp)
	callq	trace_logger_log_int
	movq	4048(%rsp), %rax        # 8-byte Reload
	cmpq	$32, %rax
	sete	%al
	movb	%al, %cl
	andb	$1, %cl
	movzbl	%cl, %ebp
	movl	%ebp, %edx
	movq	4344(%rsp), %rdi        # 8-byte Reload
	movq	4352(%rsp), %rsi        # 8-byte Reload
	movq	4352(%rsp), %rcx        # 8-byte Reload
	movq	4336(%rsp), %r8         # 8-byte Reload
	movq	4136(%rsp), %r9         # 8-byte Reload
	movq	4328(%rsp), %r10        # 8-byte Reload
	movq	%r10, (%rsp)
	movb	%al, 4047(%rsp)         # 1-byte Spill
	callq	trace_logger_log_int
	movq	4112(%rsp), %rdi        # 8-byte Reload
	movq	4104(%rsp), %rsi        # 8-byte Reload
	movq	4096(%rsp), %rdx        # 8-byte Reload
	movq	4088(%rsp), %rcx        # 8-byte Reload
	movq	4360(%rsp), %r8         # 8-byte Reload
	movl	4084(%rsp), %r9d        # 4-byte Reload
	movl	$1, (%rsp)
	callq	trace_logger_log0
	movq	4064(%rsp), %rdi        # 8-byte Reload
	movq	4136(%rsp), %rsi        # 8-byte Reload
	movq	4136(%rsp), %rdx        # 8-byte Reload
	movq	4352(%rsp), %rcx        # 8-byte Reload
	movq	4056(%rsp), %r8         # 8-byte Reload
	movq	4136(%rsp), %r9         # 8-byte Reload
	movq	4072(%rsp), %r10        # 8-byte Reload
	movq	%r10, (%rsp)
	callq	trace_logger_log_int
	movq	4360(%rsp), %rdi        # 8-byte Reload
	movq	4136(%rsp), %rsi        # 8-byte Reload
	movq	4136(%rsp), %rdx        # 8-byte Reload
	movq	4352(%rsp), %rcx        # 8-byte Reload
	movq	4168(%rsp), %r8         # 8-byte Reload
	movq	4136(%rsp), %r9         # 8-byte Reload
	movq	4120(%rsp), %r10        # 8-byte Reload
	movq	%r10, (%rsp)
	callq	trace_logger_log_int
	movb	4047(%rsp), %al         # 1-byte Reload
	andb	$1, %al
	movzbl	%al, %ebp
	movl	%ebp, %edx
	movq	4352(%rsp), %rdi        # 8-byte Reload
	movq	4352(%rsp), %rsi        # 8-byte Reload
	movq	4352(%rsp), %rcx        # 8-byte Reload
	movq	4128(%rsp), %r8         # 8-byte Reload
	movq	4136(%rsp), %r9         # 8-byte Reload
	movq	4144(%rsp), %r10        # 8-byte Reload
	movq	%r10, (%rsp)
	callq	trace_logger_log_int
	movb	4047(%rsp), %al         # 1-byte Reload
	testb	$1, %al
	movq	4048(%rsp), %rcx        # 8-byte Reload
	movq	%rcx, 6104(%rsp)        # 8-byte Spill
	jne	.LBB1_2
	jmp	.LBB1_1
.Ltmp95:
.LBB1_5:                                # %.preheader3
                                        # =>This Loop Header: Depth=1
                                        #     Child Loop BB1_6 Depth 2
	movq	5600(%rsp), %rax        # 8-byte Reload
	movabsq	$0, %rcx
	movabsq	$1, %rdx
	leaq	.L.str894, %r8
	leaq	.L.str895, %rsi
	movabsq	$106, %rdi
	leaq	.L.str891, %r9
	leaq	.L.str892, %r10
	leaq	.L.str893, %r11
	movabsq	$2, %rbx
	movl	$0, %ebp
	movl	$1, %r14d
	movabsq	$19134, %r15            # imm = 0x4ABE
	movabsq	$64, %r12
	leaq	.L.str889, %r13
	movq	%rax, 4032(%rsp)        # 8-byte Spill
	leaq	.L.str890, %rax
	movq	%rax, 4024(%rsp)        # 8-byte Spill
	leaq	.L.str887, %rax
	movq	%rax, 4016(%rsp)        # 8-byte Spill
	leaq	.L.str888, %rax
	movq	%rax, 4008(%rsp)        # 8-byte Spill
	movabsq	$3, %rax
	movq	%rax, 4000(%rsp)        # 8-byte Spill
	leaq	.L.str885, %rax
	movq	%rax, 3992(%rsp)        # 8-byte Spill
	leaq	.L.str886, %rax
	movq	%rax, 3984(%rsp)        # 8-byte Spill
	movabsq	$108, %rax
	movq	%rax, 3976(%rsp)        # 8-byte Spill
	leaq	.L.str882, %rax
	movq	%rax, 3968(%rsp)        # 8-byte Spill
	leaq	.L.str883, %rax
	movq	%rax, 3960(%rsp)        # 8-byte Spill
	leaq	.L.str884, %rax
	movq	%rax, 3952(%rsp)        # 8-byte Spill
	movabsq	$12, %rax
	movq	%rax, 3944(%rsp)        # 8-byte Spill
	leaq	.L.str880, %rax
	movq	%rax, 3936(%rsp)        # 8-byte Spill
	leaq	.L.str881, %rax
	movq	%rax, 3928(%rsp)        # 8-byte Spill
	leaq	.L.str878, %rax
	movq	%rax, 3920(%rsp)        # 8-byte Spill
	leaq	.L.str879, %rax
	movq	%rax, 3912(%rsp)        # 8-byte Spill
	leaq	.L.str876, %rax
	movq	%rax, 3904(%rsp)        # 8-byte Spill
	leaq	.L.str877, %rax
	movq	%rax, 3896(%rsp)        # 8-byte Spill
	movabsq	$-1, %rax
	movq	%rax, 3888(%rsp)        # 8-byte Spill
	leaq	.L.str873, %rax
	movq	%rax, 3880(%rsp)        # 8-byte Spill
	leaq	.L.str874, %rax
	movq	%rax, 3872(%rsp)        # 8-byte Spill
	leaq	.L.str875, %rax
	movq	%rax, 3864(%rsp)        # 8-byte Spill
	movabsq	$48, %rax
	.loc	1 108 0                 # stencil.c:108:0
.Ltmp96:
	movq	%rax, 3856(%rsp)        # 8-byte Spill
	movq	3888(%rsp), %rax        # 8-byte Reload
	movq	%rdi, 3848(%rsp)        # 8-byte Spill
	movq	%rax, %rdi
	movq	3880(%rsp), %rax        # 8-byte Reload
	movq	%rsi, 3840(%rsp)        # 8-byte Spill
	movq	%rax, %rsi
	movq	3872(%rsp), %rax        # 8-byte Reload
	movq	%rdx, 3832(%rsp)        # 8-byte Spill
	movq	%rax, %rdx
	movq	3864(%rsp), %rax        # 8-byte Reload
	movq	%rcx, 3824(%rsp)        # 8-byte Spill
	movq	%rax, %rcx
	movq	3856(%rsp), %rax        # 8-byte Reload
	movq	%r8, 3816(%rsp)         # 8-byte Spill
	movq	%rax, %r8
	movq	%r9, 3808(%rsp)         # 8-byte Spill
	movl	%ebp, %r9d
	movl	$1, (%rsp)
	movl	%r14d, 3804(%rsp)       # 4-byte Spill
	movq	%r15, 3792(%rsp)        # 8-byte Spill
	movl	%ebp, 3788(%rsp)        # 4-byte Spill
	movq	%r12, 3776(%rsp)        # 8-byte Spill
	movq	%r13, 3768(%rsp)        # 8-byte Spill
	movq	%rbx, 3760(%rsp)        # 8-byte Spill
	movq	%r10, 3752(%rsp)        # 8-byte Spill
	movq	%r11, 3744(%rsp)        # 8-byte Spill
	callq	trace_logger_log0
	movq	3760(%rsp), %rdi        # 8-byte Reload
	movq	3776(%rsp), %rsi        # 8-byte Reload
	movq	3824(%rsp), %rdx        # 8-byte Reload
	movq	3832(%rsp), %rcx        # 8-byte Reload
	movq	3904(%rsp), %r8         # 8-byte Reload
	movq	3832(%rsp), %r9         # 8-byte Reload
	movq	3896(%rsp), %rax        # 8-byte Reload
	movq	%rax, (%rsp)
	callq	trace_logger_log_int
	movq	3832(%rsp), %rdi        # 8-byte Reload
	movq	3776(%rsp), %rsi        # 8-byte Reload
	movq	3824(%rsp), %rdx        # 8-byte Reload
	movq	3824(%rsp), %rcx        # 8-byte Reload
	movq	3920(%rsp), %r8         # 8-byte Reload
	movq	3832(%rsp), %r9         # 8-byte Reload
	movq	3912(%rsp), %rax        # 8-byte Reload
	movq	%rax, (%rsp)
	callq	trace_logger_log_int
	movq	3792(%rsp), %rdi        # 8-byte Reload
	movq	3776(%rsp), %rsi        # 8-byte Reload
	movq	4032(%rsp), %rdx        # 8-byte Reload
	movq	3832(%rsp), %rcx        # 8-byte Reload
	movq	3936(%rsp), %r8         # 8-byte Reload
	movq	3824(%rsp), %r9         # 8-byte Reload
	movq	3928(%rsp), %rax        # 8-byte Reload
	movq	%rax, (%rsp)
	callq	trace_logger_log_int
	movq	3976(%rsp), %rdi        # 8-byte Reload
	movq	3968(%rsp), %rsi        # 8-byte Reload
	movq	3960(%rsp), %rdx        # 8-byte Reload
	movq	3952(%rsp), %rcx        # 8-byte Reload
	movq	3944(%rsp), %r8         # 8-byte Reload
	movl	3788(%rsp), %r9d        # 4-byte Reload
	movl	$1, (%rsp)
	callq	trace_logger_log0
	movq	3760(%rsp), %rdi        # 8-byte Reload
	movq	3776(%rsp), %rsi        # 8-byte Reload
	movq	4000(%rsp), %rdx        # 8-byte Reload
	movq	3824(%rsp), %rcx        # 8-byte Reload
	movq	3992(%rsp), %r8         # 8-byte Reload
	movq	3824(%rsp), %r9         # 8-byte Reload
	movq	3984(%rsp), %rax        # 8-byte Reload
	movq	%rax, (%rsp)
	callq	trace_logger_log_int
	movq	3832(%rsp), %rdi        # 8-byte Reload
	movq	3776(%rsp), %rsi        # 8-byte Reload
	movq	4032(%rsp), %rdx        # 8-byte Reload
	movq	3832(%rsp), %rcx        # 8-byte Reload
	movq	4016(%rsp), %r8         # 8-byte Reload
	movq	3824(%rsp), %r9         # 8-byte Reload
	movq	4008(%rsp), %rax        # 8-byte Reload
	movq	%rax, (%rsp)
	callq	trace_logger_log_int
	movq	4032(%rsp), %rax        # 8-byte Reload
	imulq	$3, %rax, %rcx
.Ltmp97:
	.loc	1 106 0                 # stencil.c:106:0
	movq	3792(%rsp), %rdi        # 8-byte Reload
	movq	3776(%rsp), %rsi        # 8-byte Reload
	movq	%rcx, %rdx
	movq	3832(%rsp), %r8         # 8-byte Reload
	movq	%rcx, 3736(%rsp)        # 8-byte Spill
	movq	%r8, %rcx
	movq	3768(%rsp), %r8         # 8-byte Reload
	movq	3824(%rsp), %r9         # 8-byte Reload
	movq	4024(%rsp), %r10        # 8-byte Reload
	movq	%r10, (%rsp)
	callq	trace_logger_log_int
	movq	3848(%rsp), %rdi        # 8-byte Reload
	movq	3808(%rsp), %rsi        # 8-byte Reload
	movq	3752(%rsp), %rdx        # 8-byte Reload
	movq	3744(%rsp), %rcx        # 8-byte Reload
	movq	3760(%rsp), %r8         # 8-byte Reload
	movl	3788(%rsp), %r9d        # 4-byte Reload
	movl	$1, (%rsp)
	callq	trace_logger_log0
	movq	3832(%rsp), %rdi        # 8-byte Reload
	movq	3824(%rsp), %rsi        # 8-byte Reload
	movq	3824(%rsp), %rdx        # 8-byte Reload
	movq	3832(%rsp), %rcx        # 8-byte Reload
	movq	3816(%rsp), %r8         # 8-byte Reload
	movq	3824(%rsp), %r9         # 8-byte Reload
	movq	3840(%rsp), %rax        # 8-byte Reload
	movq	%rax, (%rsp)
	callq	trace_logger_log_int
	movq	3824(%rsp), %rax        # 8-byte Reload
	movq	%rax, 3728(%rsp)        # 8-byte Spill
.LBB1_6:                                #   Parent Loop BB1_5 Depth=1
                                        # =>  This Inner Loop Header: Depth=2
	movq	3728(%rsp), %rax        # 8-byte Reload
	movabsq	$1, %rcx
	leaq	.L.str1003, %r8
	movabsq	$0, %rdx
	leaq	.L.str1004, %rsi
	movabsq	$2, %rdi
	leaq	.L.str1001, %r9
	leaq	.L.str1002, %r10
	movabsq	$3, %r11
	leaq	.L.str999, %rbx
	leaq	.L.str1000, %r14
	movabsq	$106, %r15
	leaq	.L.str996, %r12
	leaq	.L.str997, %r13
	leaq	.L.str998, %rbp
	movq	%rsi, 3720(%rsp)        # 8-byte Spill
	movl	$0, %esi
	movl	%esi, 3716(%rsp)        # 4-byte Spill
	movl	$1, %esi
	movq	%rax, 3704(%rsp)        # 8-byte Spill
	movabsq	$19134, %rax            # imm = 0x4ABE
	movq	%rax, 3696(%rsp)        # 8-byte Spill
	leaq	.L.str994, %rax
	movq	%rax, 3688(%rsp)        # 8-byte Spill
	leaq	.L.str995, %rax
	movq	%rax, 3680(%rsp)        # 8-byte Spill
	movabsq	$64, %rax
	movq	%rax, 3672(%rsp)        # 8-byte Spill
	leaq	.L.str992, %rax
	movq	%rax, 3664(%rsp)        # 8-byte Spill
	leaq	.L.str993, %rax
	movq	%rax, 3656(%rsp)        # 8-byte Spill
	leaq	.L.str990, %rax
	movq	%rax, 3648(%rsp)        # 8-byte Spill
	leaq	.L.str991, %rax
	movq	%rax, 3640(%rsp)        # 8-byte Spill
	leaq	.L.str987, %rax
	movq	%rax, 3632(%rsp)        # 8-byte Spill
	leaq	.L.str988, %rax
	movq	%rax, 3624(%rsp)        # 8-byte Spill
	leaq	.L.str989, %rax
	movq	%rax, 3616(%rsp)        # 8-byte Spill
	movabsq	$46, %rax
	movq	%rax, 3608(%rsp)        # 8-byte Spill
	leaq	.L.str985, %rax
	movq	%rax, 3600(%rsp)        # 8-byte Spill
	leaq	.L.str986, %rax
	movq	%rax, 3592(%rsp)        # 8-byte Spill
	leaq	.L.str983, %rax
	movq	%rax, 3584(%rsp)        # 8-byte Spill
	leaq	.L.str984, %rax
	movq	%rax, 3576(%rsp)        # 8-byte Spill
	leaq	.L.str981, %rax
	movq	%rax, 3568(%rsp)        # 8-byte Spill
	leaq	.L.str982, %rax
	movq	%rax, 3560(%rsp)        # 8-byte Spill
	leaq	.L.str978, %rax
	movq	%rax, 3552(%rsp)        # 8-byte Spill
	leaq	.L.str979, %rax
	movq	%rax, 3544(%rsp)        # 8-byte Spill
	leaq	.L.str980, %rax
	movq	%rax, 3536(%rsp)        # 8-byte Spill
	movabsq	$8, %rax
	movq	%rax, 3528(%rsp)        # 8-byte Spill
	movabsq	$32, %rax
	movq	%rax, 3520(%rsp)        # 8-byte Spill
	leaq	.L.str976, %rax
	movq	%rax, 3512(%rsp)        # 8-byte Spill
	leaq	.L.str977, %rax
	movq	%rax, 3504(%rsp)        # 8-byte Spill
	leaq	.L.str974, %rax
	movq	%rax, 3496(%rsp)        # 8-byte Spill
	leaq	.L.str975, %rax
	movq	%rax, 3488(%rsp)        # 8-byte Spill
	movabsq	$108, %rax
	movq	%rax, 3480(%rsp)        # 8-byte Spill
	leaq	.L.str971, %rax
	movq	%rax, 3472(%rsp)        # 8-byte Spill
	leaq	.L.str972, %rax
	movq	%rax, 3464(%rsp)        # 8-byte Spill
	leaq	.L.str973, %rax
	movq	%rax, 3456(%rsp)        # 8-byte Spill
	movabsq	$28, %rax
	movq	%rax, 3448(%rsp)        # 8-byte Spill
	leaq	.L.str969, %rax
	movq	%rax, 3440(%rsp)        # 8-byte Spill
	leaq	.L.str970, %rax
	movq	%rax, 3432(%rsp)        # 8-byte Spill
	leaq	.L.str967, %rax
	movq	%rax, 3424(%rsp)        # 8-byte Spill
	leaq	.L.str968, %rax
	movq	%rax, 3416(%rsp)        # 8-byte Spill
	leaq	.L.str965, %rax
	movq	%rax, 3408(%rsp)        # 8-byte Spill
	leaq	.L.str966, %rax
	movq	%rax, 3400(%rsp)        # 8-byte Spill
	leaq	.L.str962, %rax
	movq	%rax, 3392(%rsp)        # 8-byte Spill
	leaq	.L.str963, %rax
	movq	%rax, 3384(%rsp)        # 8-byte Spill
	leaq	.L.str964, %rax
	movq	%rax, 3376(%rsp)        # 8-byte Spill
	movabsq	$29, %rax
	movq	%rax, 3368(%rsp)        # 8-byte Spill
	leaq	.L.str960, %rax
	movq	%rax, 3360(%rsp)        # 8-byte Spill
	leaq	.L.str961, %rax
	movq	%rax, 3352(%rsp)        # 8-byte Spill
	leaq	.L.str958, %rax
	movq	%rax, 3344(%rsp)        # 8-byte Spill
	leaq	.L.str959, %rax
	movq	%rax, 3336(%rsp)        # 8-byte Spill
	leaq	.L.str956, %rax
	movq	%rax, 3328(%rsp)        # 8-byte Spill
	leaq	.L.str957, %rax
	movq	%rax, 3320(%rsp)        # 8-byte Spill
	leaq	.L.str953, %rax
	movq	%rax, 3312(%rsp)        # 8-byte Spill
	leaq	.L.str954, %rax
	movq	%rax, 3304(%rsp)        # 8-byte Spill
	leaq	.L.str955, %rax
	movq	%rax, 3296(%rsp)        # 8-byte Spill
	leaq	.L.str951, %rax
	movq	%rax, 3288(%rsp)        # 8-byte Spill
	leaq	.L.str952, %rax
	movq	%rax, 3280(%rsp)        # 8-byte Spill
	leaq	.L.str949, %rax
	movq	%rax, 3272(%rsp)        # 8-byte Spill
	leaq	.L.str950, %rax
	movq	%rax, 3264(%rsp)        # 8-byte Spill
	leaq	.L.str946, %rax
	movq	%rax, 3256(%rsp)        # 8-byte Spill
	leaq	.L.str947, %rax
	movq	%rax, 3248(%rsp)        # 8-byte Spill
	leaq	.L.str948, %rax
	movq	%rax, 3240(%rsp)        # 8-byte Spill
	movabsq	$37, %rax
	movq	%rax, 3232(%rsp)        # 8-byte Spill
	leaq	.L.str944, %rax
	movq	%rax, 3224(%rsp)        # 8-byte Spill
	leaq	.L.str945, %rax
	vxorps	%xmm0, %xmm0, %xmm0
	movq	%rax, 3216(%rsp)        # 8-byte Spill
	leaq	.L.str942, %rax
	movq	%rax, 3208(%rsp)        # 8-byte Spill
	leaq	.L.str943, %rax
	movq	%rax, 3200(%rsp)        # 8-byte Spill
	leaq	.L.str940, %rax
	movq	%rax, 3192(%rsp)        # 8-byte Spill
	leaq	.L.str941, %rax
	movq	%rax, 3184(%rsp)        # 8-byte Spill
	leaq	.L.str937, %rax
	movq	%rax, 3176(%rsp)        # 8-byte Spill
	leaq	.L.str938, %rax
	movq	%rax, 3168(%rsp)        # 8-byte Spill
	leaq	.L.str939, %rax
	movq	%rax, 3160(%rsp)        # 8-byte Spill
	movabsq	$9, %rax
	movq	%rax, 3152(%rsp)        # 8-byte Spill
	leaq	.L.str935, %rax
	movq	%rax, 3144(%rsp)        # 8-byte Spill
	leaq	.L.str936, %rax
	movq	%rax, 3136(%rsp)        # 8-byte Spill
	movabsq	$2147483647, %rax       # imm = 0x7FFFFFFF
	vmovsd	.LCPI1_0, %xmm1
	movq	%rax, 3128(%rsp)        # 8-byte Spill
	leaq	.L.str933, %rax
	movq	%rax, 3120(%rsp)        # 8-byte Spill
	leaq	.L.str934, %rax
	movq	%rax, 3112(%rsp)        # 8-byte Spill
	leaq	.L.str931, %rax
	movq	%rax, 3104(%rsp)        # 8-byte Spill
	leaq	.L.str932, %rax
	movq	%rax, 3096(%rsp)        # 8-byte Spill
	leaq	.L.str928, %rax
	movq	%rax, 3088(%rsp)        # 8-byte Spill
	leaq	.L.str929, %rax
	movq	%rax, 3080(%rsp)        # 8-byte Spill
	leaq	.L.str930, %rax
	movq	%rax, 3072(%rsp)        # 8-byte Spill
	movabsq	$16, %rax
	movq	%rax, 3064(%rsp)        # 8-byte Spill
	leaq	.L.str926, %rax
	movq	%rax, 3056(%rsp)        # 8-byte Spill
	leaq	.L.str927, %rax
	movq	%rax, 3048(%rsp)        # 8-byte Spill
	movabsq	$2147483646, %rax       # imm = 0x7FFFFFFE
	vmovsd	.LCPI1_1, %xmm2
	movq	%rax, 3040(%rsp)        # 8-byte Spill
	leaq	.L.str924, %rax
	movq	%rax, 3032(%rsp)        # 8-byte Spill
	leaq	.L.str925, %rax
	movq	%rax, 3024(%rsp)        # 8-byte Spill
	leaq	.L.str922, %rax
	movq	%rax, 3016(%rsp)        # 8-byte Spill
	leaq	.L.str923, %rax
	movq	%rax, 3008(%rsp)        # 8-byte Spill
	leaq	.L.str919, %rax
	movq	%rax, 3000(%rsp)        # 8-byte Spill
	leaq	.L.str920, %rax
	movq	%rax, 2992(%rsp)        # 8-byte Spill
	leaq	.L.str921, %rax
	movq	%rax, 2984(%rsp)        # 8-byte Spill
	movabsq	$13, %rax
	movq	%rax, 2976(%rsp)        # 8-byte Spill
	leaq	.L.str917, %rax
	movq	%rax, 2968(%rsp)        # 8-byte Spill
	leaq	.L.str918, %rax
	.loc	1 108 0                 # stencil.c:108:0
.Ltmp98:
	movq	%rax, 2960(%rsp)        # 8-byte Spill
	movq	%rsp, %rax
	movl	$1, (%rax)
	movl	$.L.str896, %eax
                                        # kill: RAX<def> EAX<kill>
	movl	%esi, 2956(%rsp)        # 4-byte Spill
	movl	$.L.str897, %esi
                                        # kill: RSI<def> ESI<kill>
	movq	%rsi, 2944(%rsp)        # 8-byte Spill
	movl	$.L.str898, %esi
                                        # kill: RSI<def> ESI<kill>
	movq	%rsi, 2936(%rsp)        # 8-byte Spill
	movl	$48, %esi
                                        # kill: RSI<def> ESI<kill>
	movq	%rax, 2928(%rsp)        # 8-byte Spill
	movq	$-1, %rax
	movq	%rsi, 2920(%rsp)        # 8-byte Spill
	xorl	%esi, %esi
	movq	%rdi, 2912(%rsp)        # 8-byte Spill
	movq	%rax, %rdi
	movq	2928(%rsp), %rax        # 8-byte Reload
	movl	%esi, 2908(%rsp)        # 4-byte Spill
	movq	%rax, %rsi
	movq	2944(%rsp), %rax        # 8-byte Reload
	movq	%rdx, 2896(%rsp)        # 8-byte Spill
	movq	%rax, %rdx
	movq	2936(%rsp), %rax        # 8-byte Reload
	movq	%rcx, 2888(%rsp)        # 8-byte Spill
	movq	%rax, %rcx
	movq	2920(%rsp), %rax        # 8-byte Reload
	movq	%r8, 2880(%rsp)         # 8-byte Spill
	movq	%rax, %r8
	movl	2908(%rsp), %eax        # 4-byte Reload
	movq	%r9, 2872(%rsp)         # 8-byte Spill
	movl	%eax, %r9d
	vmovsd	%xmm2, 2864(%rsp)       # 8-byte Spill
	movq	%rbp, 2856(%rsp)        # 8-byte Spill
	movq	%r13, 2848(%rsp)        # 8-byte Spill
	vmovsd	%xmm0, 2840(%rsp)       # 8-byte Spill
	vmovsd	%xmm1, 2832(%rsp)       # 8-byte Spill
	movq	%r12, 2824(%rsp)        # 8-byte Spill
	movq	%r10, 2816(%rsp)        # 8-byte Spill
	movq	%r11, 2808(%rsp)        # 8-byte Spill
	movq	%rbx, 2800(%rsp)        # 8-byte Spill
	movq	%r14, 2792(%rsp)        # 8-byte Spill
	movq	%r15, 2784(%rsp)        # 8-byte Spill
	callq	trace_logger_log0
	movq	%rsp, %rcx
	movq	$.L.str900, (%rcx)
	movl	$.L.str899, %eax
	movl	%eax, %r8d
	movl	$2, %eax
	movl	%eax, %edi
	movl	$64, %eax
	movl	%eax, %ecx
	movl	2908(%rsp), %eax        # 4-byte Reload
	movl	%eax, %edx
	movl	$1, %r9d
	movl	%r9d, %esi
	movq	%rsi, 2776(%rsp)        # 8-byte Spill
	movq	%rcx, %rsi
	movq	%rdx, 2768(%rsp)        # 8-byte Spill
	movq	2776(%rsp), %r10        # 8-byte Reload
	movq	%rcx, 2760(%rsp)        # 8-byte Spill
	movq	%r10, %rcx
	movq	%r10, %r9
	callq	trace_logger_log_int
	movq	%rsp, %rcx
	movq	$.L.str902, (%rcx)
	movl	$.L.str901, %eax
	movl	%eax, %r8d
	movq	2776(%rsp), %rdi        # 8-byte Reload
	movq	2760(%rsp), %rsi        # 8-byte Reload
	movq	2768(%rsp), %rdx        # 8-byte Reload
	movq	2768(%rsp), %rcx        # 8-byte Reload
	movq	2776(%rsp), %r9         # 8-byte Reload
	callq	trace_logger_log_int
	movq	%rsp, %rcx
	movq	$.L.str904, (%rcx)
	movl	$.L.str903, %eax
	movl	%eax, %r8d
	movl	$19134, %eax            # imm = 0x4ABE
	movl	%eax, %ecx
	movq	%rcx, %rdi
	movq	2760(%rsp), %rsi        # 8-byte Reload
	movq	3704(%rsp), %rdx        # 8-byte Reload
	movq	2776(%rsp), %r9         # 8-byte Reload
	movq	%rcx, 2752(%rsp)        # 8-byte Spill
	movq	%r9, %rcx
	movq	2768(%rsp), %r9         # 8-byte Reload
	callq	trace_logger_log_int
	movq	%rsp, %rcx
	movl	$1, (%rcx)
	movl	$.L.str905, %eax
	movl	%eax, %esi
	movl	$.L.str906, %eax
	movl	%eax, %edx
	movl	$.L.str907, %eax
	movl	%eax, %ecx
	movl	$108, %eax
	movl	%eax, %edi
	movl	$49, %eax
	movl	%eax, %r8d
	movq	%rdi, 2744(%rsp)        # 8-byte Spill
	movl	2908(%rsp), %r9d        # 4-byte Reload
	callq	trace_logger_log0
	movq	%rsp, %rcx
	movq	$.L.str909, (%rcx)
	movl	$rand, %eax
	movl	%eax, %edx
	movl	$.L.str908, %eax
	movl	%eax, %r8d
	movq	2776(%rsp), %rdi        # 8-byte Reload
	movq	2760(%rsp), %rsi        # 8-byte Reload
	movq	2776(%rsp), %rcx        # 8-byte Reload
	movq	2768(%rsp), %r9         # 8-byte Reload
	callq	trace_logger_log_int
	callq	rand
	movl	%eax, %esi
	movl	%eax, %edi
	movl	%edi, %ecx
	movq	%rsp, %rdx
	movq	$.L.str911, (%rdx)
	movl	$.L.str910, %edi
	movl	%edi, %r8d
	movl	$32, %edi
	movl	%edi, %edx
	movq	2752(%rsp), %rdi        # 8-byte Reload
	movl	%esi, 2740(%rsp)        # 4-byte Spill
	movq	%rdx, %rsi
	movq	%rdx, 2728(%rsp)        # 8-byte Spill
	movq	%rcx, %rdx
	movq	2776(%rsp), %r9         # 8-byte Reload
	movq	%rcx, 2720(%rsp)        # 8-byte Spill
	movq	%r9, %rcx
	movq	2768(%rsp), %r9         # 8-byte Reload
	movl	%eax, 2716(%rsp)        # 4-byte Spill
	callq	trace_logger_log_int
	movq	%rsp, %rcx
	movl	$1, (%rcx)
	movl	$.L.str912, %eax
	movl	%eax, %esi
	movl	$.L.str913, %eax
	movl	%eax, %edx
	movl	$.L.str914, %eax
	movl	%eax, %ecx
	movl	$39, %eax
	movl	%eax, %r8d
	movq	2744(%rsp), %rdi        # 8-byte Reload
	movl	2908(%rsp), %r9d        # 4-byte Reload
	callq	trace_logger_log0
	movq	%rsp, %rcx
	movq	$.L.str916, (%rcx)
	movl	$.L.str915, %eax
	movl	%eax, %r8d
	movq	2776(%rsp), %rdi        # 8-byte Reload
	movq	2728(%rsp), %rsi        # 8-byte Reload
	movq	2720(%rsp), %rdx        # 8-byte Reload
	movq	2776(%rsp), %rcx        # 8-byte Reload
	movq	2768(%rsp), %r9         # 8-byte Reload
	callq	trace_logger_log_int
                                        # implicit-def: XMM0
	movl	2716(%rsp), %eax        # 4-byte Reload
	vcvtsi2sdl	%eax, %xmm0, %xmm0
	movq	3696(%rsp), %rdi        # 8-byte Reload
	movq	3672(%rsp), %rsi        # 8-byte Reload
	vmovsd	%xmm0, 2704(%rsp)       # 8-byte Spill
	movq	2888(%rsp), %rdx        # 8-byte Reload
	movq	2968(%rsp), %rcx        # 8-byte Reload
	movq	2896(%rsp), %r8         # 8-byte Reload
	movq	2960(%rsp), %r9         # 8-byte Reload
	callq	trace_logger_log_double
	movq	3480(%rsp), %rdi        # 8-byte Reload
	movq	3000(%rsp), %rsi        # 8-byte Reload
	movq	2992(%rsp), %rdx        # 8-byte Reload
	movq	2984(%rsp), %rcx        # 8-byte Reload
	movq	2976(%rsp), %r8         # 8-byte Reload
	movl	3716(%rsp), %r9d        # 4-byte Reload
	movl	$1, (%rsp)
	callq	trace_logger_log0
	movq	2912(%rsp), %rdi        # 8-byte Reload
	movq	3672(%rsp), %rsi        # 8-byte Reload
	vmovsd	2864(%rsp), %xmm0       # 8-byte Reload
	movq	2896(%rsp), %rdx        # 8-byte Reload
	movq	3016(%rsp), %rcx        # 8-byte Reload
	movq	2896(%rsp), %r8         # 8-byte Reload
	movq	3008(%rsp), %r9         # 8-byte Reload
	callq	trace_logger_log_double
	movq	2888(%rsp), %rdi        # 8-byte Reload
	movq	3672(%rsp), %rsi        # 8-byte Reload
	vmovsd	2704(%rsp), %xmm0       # 8-byte Reload
	movq	2888(%rsp), %rdx        # 8-byte Reload
	movq	3032(%rsp), %rcx        # 8-byte Reload
	movq	2896(%rsp), %r8         # 8-byte Reload
	movq	3024(%rsp), %r9         # 8-byte Reload
	callq	trace_logger_log_double
	vmovsd	2704(%rsp), %xmm0       # 8-byte Reload
	vmovsd	2864(%rsp), %xmm1       # 8-byte Reload
	vmulsd	%xmm1, %xmm0, %xmm2
	movq	3696(%rsp), %rdi        # 8-byte Reload
	movq	3672(%rsp), %rsi        # 8-byte Reload
	vmovaps	%xmm2, %xmm0
	movq	2888(%rsp), %rdx        # 8-byte Reload
	movq	3056(%rsp), %rcx        # 8-byte Reload
	movq	2896(%rsp), %r8         # 8-byte Reload
	movq	3048(%rsp), %r9         # 8-byte Reload
	vmovsd	%xmm2, 2696(%rsp)       # 8-byte Spill
	callq	trace_logger_log_double
	movq	3480(%rsp), %rdi        # 8-byte Reload
	movq	3088(%rsp), %rsi        # 8-byte Reload
	movq	3080(%rsp), %rdx        # 8-byte Reload
	movq	3072(%rsp), %rcx        # 8-byte Reload
	movq	3064(%rsp), %r8         # 8-byte Reload
	movl	3716(%rsp), %r9d        # 4-byte Reload
	movl	$1, (%rsp)
	callq	trace_logger_log0
	movq	2912(%rsp), %rdi        # 8-byte Reload
	movq	3672(%rsp), %rsi        # 8-byte Reload
	vmovsd	2832(%rsp), %xmm0       # 8-byte Reload
	movq	2896(%rsp), %rdx        # 8-byte Reload
	movq	3104(%rsp), %rcx        # 8-byte Reload
	movq	2896(%rsp), %r8         # 8-byte Reload
	movq	3096(%rsp), %r9         # 8-byte Reload
	callq	trace_logger_log_double
	movq	2888(%rsp), %rdi        # 8-byte Reload
	movq	3672(%rsp), %rsi        # 8-byte Reload
	vmovsd	2696(%rsp), %xmm0       # 8-byte Reload
	movq	2888(%rsp), %rdx        # 8-byte Reload
	movq	3120(%rsp), %rcx        # 8-byte Reload
	movq	2896(%rsp), %r8         # 8-byte Reload
	movq	3112(%rsp), %r9         # 8-byte Reload
	callq	trace_logger_log_double
	vmovsd	2696(%rsp), %xmm0       # 8-byte Reload
	vmovsd	2832(%rsp), %xmm1       # 8-byte Reload
	vdivsd	%xmm1, %xmm0, %xmm2
	movq	3696(%rsp), %rdi        # 8-byte Reload
	movq	3672(%rsp), %rsi        # 8-byte Reload
	vmovaps	%xmm2, %xmm0
	movq	2888(%rsp), %rdx        # 8-byte Reload
